
PRJ_001.elf:     file format elf32-littlearm

Sections:
Idx Name          Size      VMA       LMA       File off  Algn
  0 .isr_vector   00000194  08000000  08000000  00001000  2**0
                  CONTENTS, ALLOC, LOAD, READONLY, DATA
  1 .text         00001a80  08000194  08000194  00001194  2**2
                  CONTENTS, ALLOC, LOAD, READONLY, CODE
  2 .rodata       000000a0  08001c14  08001c14  00002c14  2**0
                  CONTENTS, ALLOC, LOAD, READONLY, DATA
  3 .ARM.extab    00000000  08001cb4  08001cb4  0000305c  2**0
                  CONTENTS, READONLY
  4 .ARM          00000008  08001cb4  08001cb4  00002cb4  2**2
                  CONTENTS, ALLOC, LOAD, READONLY, DATA
  5 .preinit_array 00000000  08001cbc  08001cbc  0000305c  2**0
                  CONTENTS, ALLOC, LOAD, DATA
  6 .init_array   00000004  08001cbc  08001cbc  00002cbc  2**2
                  CONTENTS, ALLOC, LOAD, READONLY, DATA
  7 .fini_array   00000004  08001cc0  08001cc0  00002cc0  2**2
                  CONTENTS, ALLOC, LOAD, READONLY, DATA
  8 .data         0000005c  20000000  08001cc4  00003000  2**2
                  CONTENTS, ALLOC, LOAD, DATA
  9 .bss          000001cc  2000005c  08001d20  0000305c  2**2
                  ALLOC
 10 ._user_heap_stack 00000600  20000228  08001d20  00003228  2**0
                  ALLOC
 11 .ARM.attributes 00000030  00000000  00000000  0000305c  2**0
                  CONTENTS, READONLY
 12 .comment      00000043  00000000  00000000  0000308c  2**0
                  CONTENTS, READONLY
 13 .debug_frame  000019b4  00000000  00000000  000030d0  2**2
                  CONTENTS, READONLY, DEBUGGING, OCTETS

Disassembly of section .text:

08000194 <__do_global_dtors_aux>:
 8000194:	b510      	push	{r4, lr}
 8000196:	4c05      	ldr	r4, [pc, #20]	@ (80001ac <__do_global_dtors_aux+0x18>)
 8000198:	7823      	ldrb	r3, [r4, #0]
 800019a:	b933      	cbnz	r3, 80001aa <__do_global_dtors_aux+0x16>
 800019c:	4b04      	ldr	r3, [pc, #16]	@ (80001b0 <__do_global_dtors_aux+0x1c>)
 800019e:	b113      	cbz	r3, 80001a6 <__do_global_dtors_aux+0x12>
 80001a0:	4804      	ldr	r0, [pc, #16]	@ (80001b4 <__do_global_dtors_aux+0x20>)
 80001a2:	f3af 8000 	nop.w
 80001a6:	2301      	movs	r3, #1
 80001a8:	7023      	strb	r3, [r4, #0]
 80001aa:	bd10      	pop	{r4, pc}
 80001ac:	2000005c 	.word	0x2000005c
 80001b0:	00000000 	.word	0x00000000
 80001b4:	08001bfc 	.word	0x08001bfc

080001b8 <frame_dummy>:
 80001b8:	b508      	push	{r3, lr}
 80001ba:	4b03      	ldr	r3, [pc, #12]	@ (80001c8 <frame_dummy+0x10>)
 80001bc:	b11b      	cbz	r3, 80001c6 <frame_dummy+0xe>
 80001be:	4903      	ldr	r1, [pc, #12]	@ (80001cc <frame_dummy+0x14>)
 80001c0:	4803      	ldr	r0, [pc, #12]	@ (80001d0 <frame_dummy+0x18>)
 80001c2:	f3af 8000 	nop.w
 80001c6:	bd08      	pop	{r3, pc}
 80001c8:	00000000 	.word	0x00000000
 80001cc:	20000060 	.word	0x20000060
 80001d0:	08001bfc 	.word	0x08001bfc

080001d4 <strlen>:
 80001d4:	4603      	mov	r3, r0
 80001d6:	f813 2b01 	ldrb.w	r2, [r3], #1
 80001da:	2a00      	cmp	r2, #0
 80001dc:	d1fb      	bne.n	80001d6 <strlen+0x2>
 80001de:	1a18      	subs	r0, r3, r0
 80001e0:	3801      	subs	r0, #1
 80001e2:	4770      	bx	lr

080001e4 <__aeabi_uldivmod>:
 80001e4:	b953      	cbnz	r3, 80001fc <__aeabi_uldivmod+0x18>
 80001e6:	b94a      	cbnz	r2, 80001fc <__aeabi_uldivmod+0x18>
 80001e8:	2900      	cmp	r1, #0
 80001ea:	bf08      	it	eq
 80001ec:	2800      	cmpeq	r0, #0
 80001ee:	bf1c      	itt	ne
 80001f0:	f04f 31ff 	movne.w	r1, #4294967295
 80001f4:	f04f 30ff 	movne.w	r0, #4294967295
 80001f8:	f000 b988 	b.w	800050c <__aeabi_idiv0>
 80001fc:	f1ad 0c08 	sub.w	ip, sp, #8
 8000200:	e96d ce04 	strd	ip, lr, [sp, #-16]!
 8000204:	f000 f806 	bl	8000214 <__udivmoddi4>
 8000208:	f8dd e004 	ldr.w	lr, [sp, #4]
 800020c:	e9dd 2302 	ldrd	r2, r3, [sp, #8]
 8000210:	b004      	add	sp, #16
 8000212:	4770      	bx	lr

08000214 <__udivmoddi4>:
 8000214:	e92d 47f0 	stmdb	sp!, {r4, r5, r6, r7, r8, r9, sl, lr}
 8000218:	9d08      	ldr	r5, [sp, #32]
 800021a:	468e      	mov	lr, r1
 800021c:	4604      	mov	r4, r0
 800021e:	4688      	mov	r8, r1
 8000220:	2b00      	cmp	r3, #0
 8000222:	d14a      	bne.n	80002ba <__udivmoddi4+0xa6>
 8000224:	428a      	cmp	r2, r1
 8000226:	4617      	mov	r7, r2
 8000228:	d962      	bls.n	80002f0 <__udivmoddi4+0xdc>
 800022a:	fab2 f682 	clz	r6, r2
 800022e:	b14e      	cbz	r6, 8000244 <__udivmoddi4+0x30>
 8000230:	f1c6 0320 	rsb	r3, r6, #32
 8000234:	fa01 f806 	lsl.w	r8, r1, r6
 8000238:	fa20 f303 	lsr.w	r3, r0, r3
 800023c:	40b7      	lsls	r7, r6
 800023e:	ea43 0808 	orr.w	r8, r3, r8
 8000242:	40b4      	lsls	r4, r6
 8000244:	ea4f 4e17 	mov.w	lr, r7, lsr #16
 8000248:	fa1f fc87 	uxth.w	ip, r7
 800024c:	fbb8 f1fe 	udiv	r1, r8, lr
 8000250:	0c23      	lsrs	r3, r4, #16
 8000252:	fb0e 8811 	mls	r8, lr, r1, r8
 8000256:	ea43 4308 	orr.w	r3, r3, r8, lsl #16
 800025a:	fb01 f20c 	mul.w	r2, r1, ip
 800025e:	429a      	cmp	r2, r3
 8000260:	d909      	bls.n	8000276 <__udivmoddi4+0x62>
 8000262:	18fb      	adds	r3, r7, r3
 8000264:	f101 30ff 	add.w	r0, r1, #4294967295
 8000268:	f080 80ea 	bcs.w	8000440 <__udivmoddi4+0x22c>
 800026c:	429a      	cmp	r2, r3
 800026e:	f240 80e7 	bls.w	8000440 <__udivmoddi4+0x22c>
 8000272:	3902      	subs	r1, #2
 8000274:	443b      	add	r3, r7
 8000276:	1a9a      	subs	r2, r3, r2
 8000278:	b2a3      	uxth	r3, r4
 800027a:	fbb2 f0fe 	udiv	r0, r2, lr
 800027e:	fb0e 2210 	mls	r2, lr, r0, r2
 8000282:	ea43 4302 	orr.w	r3, r3, r2, lsl #16
 8000286:	fb00 fc0c 	mul.w	ip, r0, ip
 800028a:	459c      	cmp	ip, r3
 800028c:	d909      	bls.n	80002a2 <__udivmoddi4+0x8e>
 800028e:	18fb      	adds	r3, r7, r3
 8000290:	f100 32ff 	add.w	r2, r0, #4294967295
 8000294:	f080 80d6 	bcs.w	8000444 <__udivmoddi4+0x230>
 8000298:	459c      	cmp	ip, r3
 800029a:	f240 80d3 	bls.w	8000444 <__udivmoddi4+0x230>
 800029e:	443b      	add	r3, r7
 80002a0:	3802      	subs	r0, #2
 80002a2:	ea40 4001 	orr.w	r0, r0, r1, lsl #16
 80002a6:	eba3 030c 	sub.w	r3, r3, ip
 80002aa:	2100      	movs	r1, #0
 80002ac:	b11d      	cbz	r5, 80002b6 <__udivmoddi4+0xa2>
 80002ae:	40f3      	lsrs	r3, r6
 80002b0:	2200      	movs	r2, #0
 80002b2:	e9c5 3200 	strd	r3, r2, [r5]
 80002b6:	e8bd 87f0 	ldmia.w	sp!, {r4, r5, r6, r7, r8, r9, sl, pc}
 80002ba:	428b      	cmp	r3, r1
 80002bc:	d905      	bls.n	80002ca <__udivmoddi4+0xb6>
 80002be:	b10d      	cbz	r5, 80002c4 <__udivmoddi4+0xb0>
 80002c0:	e9c5 0100 	strd	r0, r1, [r5]
 80002c4:	2100      	movs	r1, #0
 80002c6:	4608      	mov	r0, r1
 80002c8:	e7f5      	b.n	80002b6 <__udivmoddi4+0xa2>
 80002ca:	fab3 f183 	clz	r1, r3
 80002ce:	2900      	cmp	r1, #0
 80002d0:	d146      	bne.n	8000360 <__udivmoddi4+0x14c>
 80002d2:	4573      	cmp	r3, lr
 80002d4:	d302      	bcc.n	80002dc <__udivmoddi4+0xc8>
 80002d6:	4282      	cmp	r2, r0
 80002d8:	f200 8105 	bhi.w	80004e6 <__udivmoddi4+0x2d2>
 80002dc:	1a84      	subs	r4, r0, r2
 80002de:	eb6e 0203 	sbc.w	r2, lr, r3
 80002e2:	2001      	movs	r0, #1
 80002e4:	4690      	mov	r8, r2
 80002e6:	2d00      	cmp	r5, #0
 80002e8:	d0e5      	beq.n	80002b6 <__udivmoddi4+0xa2>
 80002ea:	e9c5 4800 	strd	r4, r8, [r5]
 80002ee:	e7e2      	b.n	80002b6 <__udivmoddi4+0xa2>
 80002f0:	2a00      	cmp	r2, #0
 80002f2:	f000 8090 	beq.w	8000416 <__udivmoddi4+0x202>
 80002f6:	fab2 f682 	clz	r6, r2
 80002fa:	2e00      	cmp	r6, #0
 80002fc:	f040 80a4 	bne.w	8000448 <__udivmoddi4+0x234>
 8000300:	1a8a      	subs	r2, r1, r2
 8000302:	0c03      	lsrs	r3, r0, #16
 8000304:	ea4f 4e17 	mov.w	lr, r7, lsr #16
 8000308:	b280      	uxth	r0, r0
 800030a:	b2bc      	uxth	r4, r7
 800030c:	2101      	movs	r1, #1
 800030e:	fbb2 fcfe 	udiv	ip, r2, lr
 8000312:	fb0e 221c 	mls	r2, lr, ip, r2
 8000316:	ea43 4302 	orr.w	r3, r3, r2, lsl #16
 800031a:	fb04 f20c 	mul.w	r2, r4, ip
 800031e:	429a      	cmp	r2, r3
 8000320:	d907      	bls.n	8000332 <__udivmoddi4+0x11e>
 8000322:	18fb      	adds	r3, r7, r3
 8000324:	f10c 38ff 	add.w	r8, ip, #4294967295
 8000328:	d202      	bcs.n	8000330 <__udivmoddi4+0x11c>
 800032a:	429a      	cmp	r2, r3
 800032c:	f200 80e0 	bhi.w	80004f0 <__udivmoddi4+0x2dc>
 8000330:	46c4      	mov	ip, r8
 8000332:	1a9b      	subs	r3, r3, r2
 8000334:	fbb3 f2fe 	udiv	r2, r3, lr
 8000338:	fb0e 3312 	mls	r3, lr, r2, r3
 800033c:	ea40 4303 	orr.w	r3, r0, r3, lsl #16
 8000340:	fb02 f404 	mul.w	r4, r2, r4
 8000344:	429c      	cmp	r4, r3
 8000346:	d907      	bls.n	8000358 <__udivmoddi4+0x144>
 8000348:	18fb      	adds	r3, r7, r3
 800034a:	f102 30ff 	add.w	r0, r2, #4294967295
 800034e:	d202      	bcs.n	8000356 <__udivmoddi4+0x142>
 8000350:	429c      	cmp	r4, r3
 8000352:	f200 80ca 	bhi.w	80004ea <__udivmoddi4+0x2d6>
 8000356:	4602      	mov	r2, r0
 8000358:	1b1b      	subs	r3, r3, r4
 800035a:	ea42 400c 	orr.w	r0, r2, ip, lsl #16
 800035e:	e7a5      	b.n	80002ac <__udivmoddi4+0x98>
 8000360:	f1c1 0620 	rsb	r6, r1, #32
 8000364:	408b      	lsls	r3, r1
 8000366:	fa22 f706 	lsr.w	r7, r2, r6
 800036a:	431f      	orrs	r7, r3
 800036c:	fa0e f401 	lsl.w	r4, lr, r1
 8000370:	fa20 f306 	lsr.w	r3, r0, r6
 8000374:	fa2e fe06 	lsr.w	lr, lr, r6
 8000378:	ea4f 4917 	mov.w	r9, r7, lsr #16
 800037c:	4323      	orrs	r3, r4
 800037e:	fa00 f801 	lsl.w	r8, r0, r1
 8000382:	fa1f fc87 	uxth.w	ip, r7
 8000386:	fbbe f0f9 	udiv	r0, lr, r9
 800038a:	0c1c      	lsrs	r4, r3, #16
 800038c:	fb09 ee10 	mls	lr, r9, r0, lr
 8000390:	ea44 440e 	orr.w	r4, r4, lr, lsl #16
 8000394:	fb00 fe0c 	mul.w	lr, r0, ip
 8000398:	45a6      	cmp	lr, r4
 800039a:	fa02 f201 	lsl.w	r2, r2, r1
 800039e:	d909      	bls.n	80003b4 <__udivmoddi4+0x1a0>
 80003a0:	193c      	adds	r4, r7, r4
 80003a2:	f100 3aff 	add.w	sl, r0, #4294967295
 80003a6:	f080 809c 	bcs.w	80004e2 <__udivmoddi4+0x2ce>
 80003aa:	45a6      	cmp	lr, r4
 80003ac:	f240 8099 	bls.w	80004e2 <__udivmoddi4+0x2ce>
 80003b0:	3802      	subs	r0, #2
 80003b2:	443c      	add	r4, r7
 80003b4:	eba4 040e 	sub.w	r4, r4, lr
 80003b8:	fa1f fe83 	uxth.w	lr, r3
 80003bc:	fbb4 f3f9 	udiv	r3, r4, r9
 80003c0:	fb09 4413 	mls	r4, r9, r3, r4
 80003c4:	ea4e 4404 	orr.w	r4, lr, r4, lsl #16
 80003c8:	fb03 fc0c 	mul.w	ip, r3, ip
 80003cc:	45a4      	cmp	ip, r4
 80003ce:	d908      	bls.n	80003e2 <__udivmoddi4+0x1ce>
 80003d0:	193c      	adds	r4, r7, r4
 80003d2:	f103 3eff 	add.w	lr, r3, #4294967295
 80003d6:	f080 8082 	bcs.w	80004de <__udivmoddi4+0x2ca>
 80003da:	45a4      	cmp	ip, r4
 80003dc:	d97f      	bls.n	80004de <__udivmoddi4+0x2ca>
 80003de:	3b02      	subs	r3, #2
 80003e0:	443c      	add	r4, r7
 80003e2:	ea43 4000 	orr.w	r0, r3, r0, lsl #16
 80003e6:	eba4 040c 	sub.w	r4, r4, ip
 80003ea:	fba0 ec02 	umull	lr, ip, r0, r2
 80003ee:	4564      	cmp	r4, ip
 80003f0:	4673      	mov	r3, lr
 80003f2:	46e1      	mov	r9, ip
 80003f4:	d362      	bcc.n	80004bc <__udivmoddi4+0x2a8>
 80003f6:	d05f      	beq.n	80004b8 <__udivmoddi4+0x2a4>
 80003f8:	b15d      	cbz	r5, 8000412 <__udivmoddi4+0x1fe>
 80003fa:	ebb8 0203 	subs.w	r2, r8, r3
 80003fe:	eb64 0409 	sbc.w	r4, r4, r9
 8000402:	fa04 f606 	lsl.w	r6, r4, r6
 8000406:	fa22 f301 	lsr.w	r3, r2, r1
 800040a:	431e      	orrs	r6, r3
 800040c:	40cc      	lsrs	r4, r1
 800040e:	e9c5 6400 	strd	r6, r4, [r5]
 8000412:	2100      	movs	r1, #0
 8000414:	e74f      	b.n	80002b6 <__udivmoddi4+0xa2>
 8000416:	fbb1 fcf2 	udiv	ip, r1, r2
 800041a:	0c01      	lsrs	r1, r0, #16
 800041c:	ea41 410e 	orr.w	r1, r1, lr, lsl #16
 8000420:	b280      	uxth	r0, r0
 8000422:	ea40 4201 	orr.w	r2, r0, r1, lsl #16
 8000426:	463b      	mov	r3, r7
 8000428:	4638      	mov	r0, r7
 800042a:	463c      	mov	r4, r7
 800042c:	46b8      	mov	r8, r7
 800042e:	46be      	mov	lr, r7
 8000430:	2620      	movs	r6, #32
 8000432:	fbb1 f1f7 	udiv	r1, r1, r7
 8000436:	eba2 0208 	sub.w	r2, r2, r8
 800043a:	ea41 410c 	orr.w	r1, r1, ip, lsl #16
 800043e:	e766      	b.n	800030e <__udivmoddi4+0xfa>
 8000440:	4601      	mov	r1, r0
 8000442:	e718      	b.n	8000276 <__udivmoddi4+0x62>
 8000444:	4610      	mov	r0, r2
 8000446:	e72c      	b.n	80002a2 <__udivmoddi4+0x8e>
 8000448:	f1c6 0220 	rsb	r2, r6, #32
 800044c:	fa2e f302 	lsr.w	r3, lr, r2
 8000450:	40b7      	lsls	r7, r6
 8000452:	40b1      	lsls	r1, r6
 8000454:	fa20 f202 	lsr.w	r2, r0, r2
 8000458:	ea4f 4e17 	mov.w	lr, r7, lsr #16
 800045c:	430a      	orrs	r2, r1
 800045e:	fbb3 f8fe 	udiv	r8, r3, lr
 8000462:	b2bc      	uxth	r4, r7
 8000464:	fb0e 3318 	mls	r3, lr, r8, r3
 8000468:	0c11      	lsrs	r1, r2, #16
 800046a:	ea41 4103 	orr.w	r1, r1, r3, lsl #16
 800046e:	fb08 f904 	mul.w	r9, r8, r4
 8000472:	40b0      	lsls	r0, r6
 8000474:	4589      	cmp	r9, r1
 8000476:	ea4f 4310 	mov.w	r3, r0, lsr #16
 800047a:	b280      	uxth	r0, r0
 800047c:	d93e      	bls.n	80004fc <__udivmoddi4+0x2e8>
 800047e:	1879      	adds	r1, r7, r1
 8000480:	f108 3cff 	add.w	ip, r8, #4294967295
 8000484:	d201      	bcs.n	800048a <__udivmoddi4+0x276>
 8000486:	4589      	cmp	r9, r1
 8000488:	d81f      	bhi.n	80004ca <__udivmoddi4+0x2b6>
 800048a:	eba1 0109 	sub.w	r1, r1, r9
 800048e:	fbb1 f9fe 	udiv	r9, r1, lr
 8000492:	fb09 f804 	mul.w	r8, r9, r4
 8000496:	fb0e 1119 	mls	r1, lr, r9, r1
 800049a:	b292      	uxth	r2, r2
 800049c:	ea42 4201 	orr.w	r2, r2, r1, lsl #16
 80004a0:	4542      	cmp	r2, r8
 80004a2:	d229      	bcs.n	80004f8 <__udivmoddi4+0x2e4>
 80004a4:	18ba      	adds	r2, r7, r2
 80004a6:	f109 31ff 	add.w	r1, r9, #4294967295
 80004aa:	d2c4      	bcs.n	8000436 <__udivmoddi4+0x222>
 80004ac:	4542      	cmp	r2, r8
 80004ae:	d2c2      	bcs.n	8000436 <__udivmoddi4+0x222>
 80004b0:	f1a9 0102 	sub.w	r1, r9, #2
 80004b4:	443a      	add	r2, r7
 80004b6:	e7be      	b.n	8000436 <__udivmoddi4+0x222>
 80004b8:	45f0      	cmp	r8, lr
 80004ba:	d29d      	bcs.n	80003f8 <__udivmoddi4+0x1e4>
 80004bc:	ebbe 0302 	subs.w	r3, lr, r2
 80004c0:	eb6c 0c07 	sbc.w	ip, ip, r7
 80004c4:	3801      	subs	r0, #1
 80004c6:	46e1      	mov	r9, ip
 80004c8:	e796      	b.n	80003f8 <__udivmoddi4+0x1e4>
 80004ca:	eba7 0909 	sub.w	r9, r7, r9
 80004ce:	4449      	add	r1, r9
 80004d0:	f1a8 0c02 	sub.w	ip, r8, #2
 80004d4:	fbb1 f9fe 	udiv	r9, r1, lr
 80004d8:	fb09 f804 	mul.w	r8, r9, r4
 80004dc:	e7db      	b.n	8000496 <__udivmoddi4+0x282>
 80004de:	4673      	mov	r3, lr
 80004e0:	e77f      	b.n	80003e2 <__udivmoddi4+0x1ce>
 80004e2:	4650      	mov	r0, sl
 80004e4:	e766      	b.n	80003b4 <__udivmoddi4+0x1a0>
 80004e6:	4608      	mov	r0, r1
 80004e8:	e6fd      	b.n	80002e6 <__udivmoddi4+0xd2>
 80004ea:	443b      	add	r3, r7
 80004ec:	3a02      	subs	r2, #2
 80004ee:	e733      	b.n	8000358 <__udivmoddi4+0x144>
 80004f0:	f1ac 0c02 	sub.w	ip, ip, #2
 80004f4:	443b      	add	r3, r7
 80004f6:	e71c      	b.n	8000332 <__udivmoddi4+0x11e>
 80004f8:	4649      	mov	r1, r9
 80004fa:	e79c      	b.n	8000436 <__udivmoddi4+0x222>
 80004fc:	eba1 0109 	sub.w	r1, r1, r9
 8000500:	46c4      	mov	ip, r8
 8000502:	fbb1 f9fe 	udiv	r9, r1, lr
 8000506:	fb09 f804 	mul.w	r8, r9, r4
 800050a:	e7c4      	b.n	8000496 <__udivmoddi4+0x282>

0800050c <__aeabi_idiv0>:
 800050c:	4770      	bx	lr
 800050e:	bf00      	nop

08000510 <lcd_send_cmd>:
 8000510:	b51f      	push	{r0, r1, r2, r3, r4, lr}
 8000512:	f001 03f0 	and.w	r3, r1, #240	@ 0xf0
 8000516:	0109      	lsls	r1, r1, #4
 8000518:	f043 020c 	orr.w	r2, r3, #12
 800051c:	b2c9      	uxtb	r1, r1
 800051e:	f043 0308 	orr.w	r3, r3, #8
 8000522:	f88d 300d 	strb.w	r3, [sp, #13]
 8000526:	f041 030c 	orr.w	r3, r1, #12
 800052a:	f88d 300e 	strb.w	r3, [sp, #14]
 800052e:	2364      	movs	r3, #100	@ 0x64
 8000530:	9300      	str	r3, [sp, #0]
 8000532:	f041 0108 	orr.w	r1, r1, #8
 8000536:	f88d 200c 	strb.w	r2, [sp, #12]
 800053a:	f88d 100f 	strb.w	r1, [sp, #15]
 800053e:	2304      	movs	r3, #4
 8000540:	7901      	ldrb	r1, [r0, #4]
 8000542:	6800      	ldr	r0, [r0, #0]
 8000544:	aa03      	add	r2, sp, #12
 8000546:	f000 fdb1 	bl	80010ac <HAL_I2C_Master_Transmit>
 800054a:	b005      	add	sp, #20
 800054c:	f85d fb04 	ldr.w	pc, [sp], #4

08000550 <lcd_send_data>:
 8000550:	b51f      	push	{r0, r1, r2, r3, r4, lr}
 8000552:	f001 03f0 	and.w	r3, r1, #240	@ 0xf0
 8000556:	0109      	lsls	r1, r1, #4
 8000558:	f043 020d 	orr.w	r2, r3, #13
 800055c:	b2c9      	uxtb	r1, r1
 800055e:	f043 0309 	orr.w	r3, r3, #9
 8000562:	f88d 300d 	strb.w	r3, [sp, #13]
 8000566:	f041 030d 	orr.w	r3, r1, #13
 800056a:	f88d 300e 	strb.w	r3, [sp, #14]
 800056e:	2364      	movs	r3, #100	@ 0x64
 8000570:	9300      	str	r3, [sp, #0]
 8000572:	f041 0109 	orr.w	r1, r1, #9
 8000576:	f88d 200c 	strb.w	r2, [sp, #12]
 800057a:	f88d 100f 	strb.w	r1, [sp, #15]
 800057e:	2304      	movs	r3, #4
 8000580:	7901      	ldrb	r1, [r0, #4]
 8000582:	6800      	ldr	r0, [r0, #0]
 8000584:	aa03      	add	r2, sp, #12
 8000586:	f000 fd91 	bl	80010ac <HAL_I2C_Master_Transmit>
 800058a:	b005      	add	sp, #20
 800058c:	f85d fb04 	ldr.w	pc, [sp], #4

08000590 <lcd_clear>:
 8000590:	b538      	push	{r3, r4, r5, lr}
 8000592:	2180      	movs	r1, #128	@ 0x80
 8000594:	4605      	mov	r5, r0
 8000596:	f7ff ffbb 	bl	8000510 <lcd_send_cmd>
 800059a:	2450      	movs	r4, #80	@ 0x50
 800059c:	2120      	movs	r1, #32
 800059e:	4628      	mov	r0, r5
 80005a0:	f7ff ffd6 	bl	8000550 <lcd_send_data>
 80005a4:	3c01      	subs	r4, #1
 80005a6:	d1f9      	bne.n	800059c <lcd_clear+0xc>
 80005a8:	bd38      	pop	{r3, r4, r5, pc}

080005aa <lcd_gotoxy>:
 80005aa:	2a03      	cmp	r2, #3
 80005ac:	d80d      	bhi.n	80005ca <lcd_gotoxy+0x20>
 80005ae:	e8df f002 	tbb	[pc, r2]
 80005b2:	0602      	.short	0x0602
 80005b4:	0a08      	.short	0x0a08
 80005b6:	3980      	subs	r1, #128	@ 0x80
 80005b8:	b2c9      	uxtb	r1, r1
 80005ba:	f7ff bfa9 	b.w	8000510 <lcd_send_cmd>
 80005be:	3940      	subs	r1, #64	@ 0x40
 80005c0:	e7fa      	b.n	80005b8 <lcd_gotoxy+0xe>
 80005c2:	396c      	subs	r1, #108	@ 0x6c
 80005c4:	e7f8      	b.n	80005b8 <lcd_gotoxy+0xe>
 80005c6:	392c      	subs	r1, #44	@ 0x2c
 80005c8:	e7f6      	b.n	80005b8 <lcd_gotoxy+0xe>
 80005ca:	4770      	bx	lr

080005cc <lcd_init>:
 80005cc:	b510      	push	{r4, lr}
 80005ce:	4604      	mov	r4, r0
 80005d0:	2032      	movs	r0, #50	@ 0x32
 80005d2:	f000 faa1 	bl	8000b18 <HAL_Delay>
 80005d6:	2130      	movs	r1, #48	@ 0x30
 80005d8:	4620      	mov	r0, r4
 80005da:	f7ff ff99 	bl	8000510 <lcd_send_cmd>
 80005de:	2005      	movs	r0, #5
 80005e0:	f000 fa9a 	bl	8000b18 <HAL_Delay>
 80005e4:	2130      	movs	r1, #48	@ 0x30
 80005e6:	4620      	mov	r0, r4
 80005e8:	f7ff ff92 	bl	8000510 <lcd_send_cmd>
 80005ec:	2001      	movs	r0, #1
 80005ee:	f000 fa93 	bl	8000b18 <HAL_Delay>
 80005f2:	2130      	movs	r1, #48	@ 0x30
 80005f4:	4620      	mov	r0, r4
 80005f6:	f7ff ff8b 	bl	8000510 <lcd_send_cmd>
 80005fa:	200a      	movs	r0, #10
 80005fc:	f000 fa8c 	bl	8000b18 <HAL_Delay>
 8000600:	2120      	movs	r1, #32
 8000602:	4620      	mov	r0, r4
 8000604:	f7ff ff84 	bl	8000510 <lcd_send_cmd>
 8000608:	200a      	movs	r0, #10
 800060a:	f000 fa85 	bl	8000b18 <HAL_Delay>
 800060e:	2128      	movs	r1, #40	@ 0x28
 8000610:	4620      	mov	r0, r4
 8000612:	f7ff ff7d 	bl	8000510 <lcd_send_cmd>
 8000616:	2001      	movs	r0, #1
 8000618:	f000 fa7e 	bl	8000b18 <HAL_Delay>
 800061c:	2108      	movs	r1, #8
 800061e:	4620      	mov	r0, r4
 8000620:	f7ff ff76 	bl	8000510 <lcd_send_cmd>
 8000624:	2001      	movs	r0, #1
 8000626:	f000 fa77 	bl	8000b18 <HAL_Delay>
 800062a:	2101      	movs	r1, #1
 800062c:	4620      	mov	r0, r4
 800062e:	f7ff ff6f 	bl	8000510 <lcd_send_cmd>
 8000632:	2002      	movs	r0, #2
 8000634:	f000 fa70 	bl	8000b18 <HAL_Delay>
 8000638:	2106      	movs	r1, #6
 800063a:	4620      	mov	r0, r4
 800063c:	f7ff ff68 	bl	8000510 <lcd_send_cmd>
 8000640:	2001      	movs	r0, #1
 8000642:	f000 fa69 	bl	8000b18 <HAL_Delay>
 8000646:	4620      	mov	r0, r4
 8000648:	210c      	movs	r1, #12
 800064a:	e8bd 4010 	ldmia.w	sp!, {r4, lr}
 800064e:	f7ff bf5f 	b.w	8000510 <lcd_send_cmd>

08000652 <lcd_puts>:
 8000652:	b538      	push	{r3, r4, r5, lr}
 8000654:	4605      	mov	r5, r0
 8000656:	1e4c      	subs	r4, r1, #1
 8000658:	f814 1f01 	ldrb.w	r1, [r4, #1]!
 800065c:	b901      	cbnz	r1, 8000660 <lcd_puts+0xe>
 800065e:	bd38      	pop	{r3, r4, r5, pc}
 8000660:	4628      	mov	r0, r5
 8000662:	f7ff ff75 	bl	8000550 <lcd_send_data>
 8000666:	e7f7      	b.n	8000658 <lcd_puts+0x6>

08000668 <_ZN6DeviceC1ENSt7__cxx1112basic_stringIcSt11char_traitsIcESaIcEEE>:
 8000668:	b538      	push	{r3, r4, r5, lr}
 800066a:	460d      	mov	r5, r1
 800066c:	4604      	mov	r4, r0
 800066e:	490c      	ldr	r1, [pc, #48]	@ (80006a0 <_ZN6DeviceC1ENSt7__cxx1112basic_stringIcSt11char_traitsIcESaIcEEE+0x38>)
 8000670:	4628      	mov	r0, r5
 8000672:	f001 f8de 	bl	8001832 <_ZNKSt7__cxx1112basic_stringIcSt11char_traitsIcESaIcEE7compareEPKc>
 8000676:	b918      	cbnz	r0, 8000680 <_ZN6DeviceC1ENSt7__cxx1112basic_stringIcSt11char_traitsIcESaIcEEE+0x18>
 8000678:	2302      	movs	r3, #2
 800067a:	7023      	strb	r3, [r4, #0]
 800067c:	4620      	mov	r0, r4
 800067e:	bd38      	pop	{r3, r4, r5, pc}
 8000680:	4908      	ldr	r1, [pc, #32]	@ (80006a4 <_ZN6DeviceC1ENSt7__cxx1112basic_stringIcSt11char_traitsIcESaIcEEE+0x3c>)
 8000682:	4628      	mov	r0, r5
 8000684:	f001 f8d5 	bl	8001832 <_ZNKSt7__cxx1112basic_stringIcSt11char_traitsIcESaIcEE7compareEPKc>
 8000688:	b908      	cbnz	r0, 800068e <_ZN6DeviceC1ENSt7__cxx1112basic_stringIcSt11char_traitsIcESaIcEEE+0x26>
 800068a:	2303      	movs	r3, #3
 800068c:	e7f5      	b.n	800067a <_ZN6DeviceC1ENSt7__cxx1112basic_stringIcSt11char_traitsIcESaIcEEE+0x12>
 800068e:	4906      	ldr	r1, [pc, #24]	@ (80006a8 <_ZN6DeviceC1ENSt7__cxx1112basic_stringIcSt11char_traitsIcESaIcEEE+0x40>)
 8000690:	4628      	mov	r0, r5
 8000692:	f001 f8ce 	bl	8001832 <_ZNKSt7__cxx1112basic_stringIcSt11char_traitsIcESaIcEE7compareEPKc>
 8000696:	2800      	cmp	r0, #0
 8000698:	d1f0      	bne.n	800067c <_ZN6DeviceC1ENSt7__cxx1112basic_stringIcSt11char_traitsIcESaIcEEE+0x14>
 800069a:	2304      	movs	r3, #4
 800069c:	e7ed      	b.n	800067a <_ZN6DeviceC1ENSt7__cxx1112basic_stringIcSt11char_traitsIcESaIcEEE+0x12>
 800069e:	bf00      	nop
 80006a0:	08001c14 	.word	0x08001c14
 80006a4:	08001c20 	.word	0x08001c20
 80006a8:	08001c2d 	.word	0x08001c2d

080006ac <MX_GPIO_Init>:
 80006ac:	b082      	sub	sp, #8
 80006ae:	4b0c      	ldr	r3, [pc, #48]	@ (80006e0 <MX_GPIO_Init+0x34>)
 80006b0:	2100      	movs	r1, #0
 80006b2:	9100      	str	r1, [sp, #0]
 80006b4:	6b1a      	ldr	r2, [r3, #48]	@ 0x30
 80006b6:	f042 0202 	orr.w	r2, r2, #2
 80006ba:	631a      	str	r2, [r3, #48]	@ 0x30
 80006bc:	6b1a      	ldr	r2, [r3, #48]	@ 0x30
 80006be:	f002 0202 	and.w	r2, r2, #2
 80006c2:	9200      	str	r2, [sp, #0]
 80006c4:	9a00      	ldr	r2, [sp, #0]
 80006c6:	9101      	str	r1, [sp, #4]
 80006c8:	6b1a      	ldr	r2, [r3, #48]	@ 0x30
 80006ca:	f042 0280 	orr.w	r2, r2, #128	@ 0x80
 80006ce:	631a      	str	r2, [r3, #48]	@ 0x30
 80006d0:	6b1b      	ldr	r3, [r3, #48]	@ 0x30
 80006d2:	f003 0380 	and.w	r3, r3, #128	@ 0x80
 80006d6:	9301      	str	r3, [sp, #4]
 80006d8:	9b01      	ldr	r3, [sp, #4]
 80006da:	b002      	add	sp, #8
 80006dc:	4770      	bx	lr
 80006de:	bf00      	nop
 80006e0:	40023800 	.word	0x40023800

080006e4 <MX_I2C1_Init>:
 80006e4:	b508      	push	{r3, lr}
 80006e6:	480b      	ldr	r0, [pc, #44]	@ (8000714 <MX_I2C1_Init+0x30>)
 80006e8:	4a0b      	ldr	r2, [pc, #44]	@ (8000718 <MX_I2C1_Init+0x34>)
 80006ea:	4b0c      	ldr	r3, [pc, #48]	@ (800071c <MX_I2C1_Init+0x38>)
 80006ec:	e9c0 2300 	strd	r2, r3, [r0]
 80006f0:	2300      	movs	r3, #0
 80006f2:	f44f 4280 	mov.w	r2, #16384	@ 0x4000
 80006f6:	e9c0 3302 	strd	r3, r3, [r0, #8]
 80006fa:	e9c0 2304 	strd	r2, r3, [r0, #16]
 80006fe:	e9c0 3306 	strd	r3, r3, [r0, #24]
 8000702:	6203      	str	r3, [r0, #32]
 8000704:	f000 fc2a 	bl	8000f5c <HAL_I2C_Init>
 8000708:	b118      	cbz	r0, 8000712 <MX_I2C1_Init+0x2e>
 800070a:	e8bd 4008 	ldmia.w	sp!, {r3, lr}
 800070e:	f000 b927 	b.w	8000960 <Error_Handler>
 8000712:	bd08      	pop	{r3, pc}
 8000714:	20000078 	.word	0x20000078
 8000718:	40005400 	.word	0x40005400
 800071c:	000186a0 	.word	0x000186a0

08000720 <HAL_I2C_MspInit>:
 8000720:	b530      	push	{r4, r5, lr}
 8000722:	4604      	mov	r4, r0
 8000724:	b089      	sub	sp, #36	@ 0x24
 8000726:	2214      	movs	r2, #20
 8000728:	2100      	movs	r1, #0
 800072a:	a803      	add	r0, sp, #12
 800072c:	f001 f986 	bl	8001a3c <memset>
 8000730:	6822      	ldr	r2, [r4, #0]
 8000732:	4b14      	ldr	r3, [pc, #80]	@ (8000784 <HAL_I2C_MspInit+0x64>)
 8000734:	429a      	cmp	r2, r3
 8000736:	d122      	bne.n	800077e <HAL_I2C_MspInit+0x5e>
 8000738:	4c13      	ldr	r4, [pc, #76]	@ (8000788 <HAL_I2C_MspInit+0x68>)
 800073a:	4814      	ldr	r0, [pc, #80]	@ (800078c <HAL_I2C_MspInit+0x6c>)
 800073c:	2500      	movs	r5, #0
 800073e:	9501      	str	r5, [sp, #4]
 8000740:	6b23      	ldr	r3, [r4, #48]	@ 0x30
 8000742:	f043 0302 	orr.w	r3, r3, #2
 8000746:	6323      	str	r3, [r4, #48]	@ 0x30
 8000748:	6b23      	ldr	r3, [r4, #48]	@ 0x30
 800074a:	f003 0302 	and.w	r3, r3, #2
 800074e:	9301      	str	r3, [sp, #4]
 8000750:	9b01      	ldr	r3, [sp, #4]
 8000752:	f44f 7240 	mov.w	r2, #768	@ 0x300
 8000756:	2312      	movs	r3, #18
 8000758:	e9cd 2303 	strd	r2, r3, [sp, #12]
 800075c:	2103      	movs	r1, #3
 800075e:	2304      	movs	r3, #4
 8000760:	e9cd 1306 	strd	r1, r3, [sp, #24]
 8000764:	a903      	add	r1, sp, #12
 8000766:	f000 fa43 	bl	8000bf0 <HAL_GPIO_Init>
 800076a:	9502      	str	r5, [sp, #8]
 800076c:	6c23      	ldr	r3, [r4, #64]	@ 0x40
 800076e:	f443 1300 	orr.w	r3, r3, #2097152	@ 0x200000
 8000772:	6423      	str	r3, [r4, #64]	@ 0x40
 8000774:	6c23      	ldr	r3, [r4, #64]	@ 0x40
 8000776:	f403 1300 	and.w	r3, r3, #2097152	@ 0x200000
 800077a:	9302      	str	r3, [sp, #8]
 800077c:	9b02      	ldr	r3, [sp, #8]
 800077e:	b009      	add	sp, #36	@ 0x24
 8000780:	bd30      	pop	{r4, r5, pc}
 8000782:	bf00      	nop
 8000784:	40005400 	.word	0x40005400
 8000788:	40023800 	.word	0x40023800
 800078c:	40020400 	.word	0x40020400

08000790 <_ZNSt7__cxx1112basic_stringIcSt11char_traitsIcESaIcEEC2EPKcRKS3_.isra.0>:
 8000790:	f100 0308 	add.w	r3, r0, #8
 8000794:	b573      	push	{r0, r1, r4, r5, r6, lr}
 8000796:	4604      	mov	r4, r0
 8000798:	6003      	str	r3, [r0, #0]
 800079a:	460d      	mov	r5, r1
 800079c:	b911      	cbnz	r1, 80007a4 <_ZNSt7__cxx1112basic_stringIcSt11char_traitsIcESaIcEEC2EPKcRKS3_.isra.0+0x14>
 800079e:	480f      	ldr	r0, [pc, #60]	@ (80007dc <_ZNSt7__cxx1112basic_stringIcSt11char_traitsIcESaIcEEC2EPKcRKS3_.isra.0+0x4c>)
 80007a0:	f000 ffe7 	bl	8001772 <_ZSt19__throw_logic_errorPKc>
 80007a4:	4608      	mov	r0, r1
 80007a6:	f7ff fd15 	bl	80001d4 <strlen>
 80007aa:	280f      	cmp	r0, #15
 80007ac:	eb05 0600 	add.w	r6, r5, r0
 80007b0:	9001      	str	r0, [sp, #4]
 80007b2:	d907      	bls.n	80007c4 <_ZNSt7__cxx1112basic_stringIcSt11char_traitsIcESaIcEEC2EPKcRKS3_.isra.0+0x34>
 80007b4:	2200      	movs	r2, #0
 80007b6:	a901      	add	r1, sp, #4
 80007b8:	4620      	mov	r0, r4
 80007ba:	f000 fff9 	bl	80017b0 <_ZNSt7__cxx1112basic_stringIcSt11char_traitsIcESaIcEE9_M_createERjj>
 80007be:	9b01      	ldr	r3, [sp, #4]
 80007c0:	6020      	str	r0, [r4, #0]
 80007c2:	60a3      	str	r3, [r4, #8]
 80007c4:	4632      	mov	r2, r6
 80007c6:	4629      	mov	r1, r5
 80007c8:	6820      	ldr	r0, [r4, #0]
 80007ca:	f001 f82d 	bl	8001828 <_ZNSt7__cxx1112basic_stringIcSt11char_traitsIcESaIcEE13_S_copy_charsEPcPKcS7_>
 80007ce:	9b01      	ldr	r3, [sp, #4]
 80007d0:	6822      	ldr	r2, [r4, #0]
 80007d2:	6063      	str	r3, [r4, #4]
 80007d4:	2100      	movs	r1, #0
 80007d6:	54d1      	strb	r1, [r2, r3]
 80007d8:	b002      	add	sp, #8
 80007da:	bd70      	pop	{r4, r5, r6, pc}
 80007dc:	08001c36 	.word	0x08001c36

080007e0 <_ZN4RoomC1ENSt7__cxx1112basic_stringIcSt11char_traitsIcESaIcEEE>:
 80007e0:	b570      	push	{r4, r5, r6, lr}
 80007e2:	b088      	sub	sp, #32
 80007e4:	ab04      	add	r3, sp, #16
 80007e6:	9302      	str	r3, [sp, #8]
 80007e8:	e9d1 5300 	ldrd	r5, r3, [r1]
 80007ec:	2b0f      	cmp	r3, #15
 80007ee:	4604      	mov	r4, r0
 80007f0:	eb05 0603 	add.w	r6, r5, r3
 80007f4:	9301      	str	r3, [sp, #4]
 80007f6:	d907      	bls.n	8000808 <_ZN4RoomC1ENSt7__cxx1112basic_stringIcSt11char_traitsIcESaIcEEE+0x28>
 80007f8:	2200      	movs	r2, #0
 80007fa:	a901      	add	r1, sp, #4
 80007fc:	a802      	add	r0, sp, #8
 80007fe:	f000 ffd7 	bl	80017b0 <_ZNSt7__cxx1112basic_stringIcSt11char_traitsIcESaIcEE9_M_createERjj>
 8000802:	9b01      	ldr	r3, [sp, #4]
 8000804:	9002      	str	r0, [sp, #8]
 8000806:	9304      	str	r3, [sp, #16]
 8000808:	9802      	ldr	r0, [sp, #8]
 800080a:	4632      	mov	r2, r6
 800080c:	4629      	mov	r1, r5
 800080e:	f001 f806 	bl	800181e <_ZNSt7__cxx1112basic_stringIcSt11char_traitsIcESaIcEE13_S_copy_charsEPcS5_S5_>
 8000812:	9b01      	ldr	r3, [sp, #4]
 8000814:	9a02      	ldr	r2, [sp, #8]
 8000816:	9303      	str	r3, [sp, #12]
 8000818:	2100      	movs	r1, #0
 800081a:	54d1      	strb	r1, [r2, r3]
 800081c:	4620      	mov	r0, r4
 800081e:	a902      	add	r1, sp, #8
 8000820:	f7ff ff22 	bl	8000668 <_ZN6DeviceC1ENSt7__cxx1112basic_stringIcSt11char_traitsIcESaIcEEE>
 8000824:	a802      	add	r0, sp, #8
 8000826:	f000 ffe4 	bl	80017f2 <_ZNSt7__cxx1112basic_stringIcSt11char_traitsIcESaIcEE10_M_disposeEv>
 800082a:	4620      	mov	r0, r4
 800082c:	b008      	add	sp, #32
 800082e:	bd70      	pop	{r4, r5, r6, pc}

08000830 <_Z18SystemClock_Configv>:
 8000830:	b500      	push	{lr}
 8000832:	b095      	sub	sp, #84	@ 0x54
 8000834:	222c      	movs	r2, #44	@ 0x2c
 8000836:	2100      	movs	r1, #0
 8000838:	a809      	add	r0, sp, #36	@ 0x24
 800083a:	f001 f8ff 	bl	8001a3c <memset>
 800083e:	2214      	movs	r2, #20
 8000840:	2100      	movs	r1, #0
 8000842:	a803      	add	r0, sp, #12
 8000844:	f001 f8fa 	bl	8001a3c <memset>
 8000848:	2200      	movs	r2, #0
 800084a:	4b1a      	ldr	r3, [pc, #104]	@ (80008b4 <_Z18SystemClock_Configv+0x84>)
 800084c:	9201      	str	r2, [sp, #4]
 800084e:	6c19      	ldr	r1, [r3, #64]	@ 0x40
 8000850:	f041 5180 	orr.w	r1, r1, #268435456	@ 0x10000000
 8000854:	6419      	str	r1, [r3, #64]	@ 0x40
 8000856:	6c1b      	ldr	r3, [r3, #64]	@ 0x40
 8000858:	4917      	ldr	r1, [pc, #92]	@ (80008b8 <_Z18SystemClock_Configv+0x88>)
 800085a:	f003 5380 	and.w	r3, r3, #268435456	@ 0x10000000
 800085e:	9301      	str	r3, [sp, #4]
 8000860:	9b01      	ldr	r3, [sp, #4]
 8000862:	9202      	str	r2, [sp, #8]
 8000864:	680b      	ldr	r3, [r1, #0]
 8000866:	f423 4340 	bic.w	r3, r3, #49152	@ 0xc000
 800086a:	f443 4300 	orr.w	r3, r3, #32768	@ 0x8000
 800086e:	600b      	str	r3, [r1, #0]
 8000870:	680b      	ldr	r3, [r1, #0]
 8000872:	920e      	str	r2, [sp, #56]	@ 0x38
 8000874:	f403 4340 	and.w	r3, r3, #49152	@ 0xc000
 8000878:	9302      	str	r3, [sp, #8]
 800087a:	9b02      	ldr	r3, [sp, #8]
 800087c:	2302      	movs	r3, #2
 800087e:	9308      	str	r3, [sp, #32]
 8000880:	2001      	movs	r0, #1
 8000882:	2310      	movs	r3, #16
 8000884:	e9cd 030b 	strd	r0, r3, [sp, #44]	@ 0x2c
 8000888:	a808      	add	r0, sp, #32
 800088a:	f000 fce9 	bl	8001260 <HAL_RCC_OscConfig>
 800088e:	4601      	mov	r1, r0
 8000890:	b108      	cbz	r0, 8000896 <_Z18SystemClock_Configv+0x66>
 8000892:	b672      	cpsid	i
 8000894:	e7fe      	b.n	8000894 <_Z18SystemClock_Configv+0x64>
 8000896:	230f      	movs	r3, #15
 8000898:	e9cd 3003 	strd	r3, r0, [sp, #12]
 800089c:	e9cd 0005 	strd	r0, r0, [sp, #20]
 80008a0:	9007      	str	r0, [sp, #28]
 80008a2:	a803      	add	r0, sp, #12
 80008a4:	f000 feb8 	bl	8001618 <HAL_RCC_ClockConfig>
 80008a8:	b108      	cbz	r0, 80008ae <_Z18SystemClock_Configv+0x7e>
 80008aa:	b672      	cpsid	i
 80008ac:	e7fe      	b.n	80008ac <_Z18SystemClock_Configv+0x7c>
 80008ae:	b015      	add	sp, #84	@ 0x54
 80008b0:	f85d fb04 	ldr.w	pc, [sp], #4
 80008b4:	40023800 	.word	0x40023800
 80008b8:	40007000 	.word	0x40007000

080008bc <main>:
 80008bc:	b500      	push	{lr}
 80008be:	b08b      	sub	sp, #44	@ 0x2c
 80008c0:	f000 f8fe 	bl	8000ac0 <HAL_Init>
 80008c4:	f7ff ffb4 	bl	8000830 <_Z18SystemClock_Configv>
 80008c8:	f7ff fef0 	bl	80006ac <MX_GPIO_Init>
 80008cc:	f7ff ff0a 	bl	80006e4 <MX_I2C1_Init>
 80008d0:	491c      	ldr	r1, [pc, #112]	@ (8000944 <main+0x88>)
 80008d2:	4c1d      	ldr	r4, [pc, #116]	@ (8000948 <main+0x8c>)
 80008d4:	a804      	add	r0, sp, #16
 80008d6:	f7ff ff5b 	bl	8000790 <_ZNSt7__cxx1112basic_stringIcSt11char_traitsIcESaIcEEC2EPKcRKS3_.isra.0>
 80008da:	a904      	add	r1, sp, #16
 80008dc:	a801      	add	r0, sp, #4
 80008de:	f7ff ff7f 	bl	80007e0 <_ZN4RoomC1ENSt7__cxx1112basic_stringIcSt11char_traitsIcESaIcEEE>
 80008e2:	a804      	add	r0, sp, #16
 80008e4:	f000 ff85 	bl	80017f2 <_ZNSt7__cxx1112basic_stringIcSt11char_traitsIcESaIcEE10_M_disposeEv>
 80008e8:	4918      	ldr	r1, [pc, #96]	@ (800094c <main+0x90>)
 80008ea:	a804      	add	r0, sp, #16
 80008ec:	f7ff ff50 	bl	8000790 <_ZNSt7__cxx1112basic_stringIcSt11char_traitsIcESaIcEEC2EPKcRKS3_.isra.0>
 80008f0:	a904      	add	r1, sp, #16
 80008f2:	a802      	add	r0, sp, #8
 80008f4:	f7ff ff74 	bl	80007e0 <_ZN4RoomC1ENSt7__cxx1112basic_stringIcSt11char_traitsIcESaIcEEE>
 80008f8:	a804      	add	r0, sp, #16
 80008fa:	f000 ff7a 	bl	80017f2 <_ZNSt7__cxx1112basic_stringIcSt11char_traitsIcESaIcEE10_M_disposeEv>
 80008fe:	4914      	ldr	r1, [pc, #80]	@ (8000950 <main+0x94>)
 8000900:	a804      	add	r0, sp, #16
 8000902:	f7ff ff45 	bl	8000790 <_ZNSt7__cxx1112basic_stringIcSt11char_traitsIcESaIcEEC2EPKcRKS3_.isra.0>
 8000906:	a904      	add	r1, sp, #16
 8000908:	a803      	add	r0, sp, #12
 800090a:	f7ff ff69 	bl	80007e0 <_ZN4RoomC1ENSt7__cxx1112basic_stringIcSt11char_traitsIcESaIcEEE>
 800090e:	a804      	add	r0, sp, #16
 8000910:	f000 ff6f 	bl	80017f2 <_ZNSt7__cxx1112basic_stringIcSt11char_traitsIcESaIcEE10_M_disposeEv>
 8000914:	4b0f      	ldr	r3, [pc, #60]	@ (8000954 <main+0x98>)
 8000916:	6023      	str	r3, [r4, #0]
 8000918:	4620      	mov	r0, r4
 800091a:	234e      	movs	r3, #78	@ 0x4e
 800091c:	7123      	strb	r3, [r4, #4]
 800091e:	f7ff fe55 	bl	80005cc <lcd_init>
 8000922:	4620      	mov	r0, r4
 8000924:	f7ff fe34 	bl	8000590 <lcd_clear>
 8000928:	490b      	ldr	r1, [pc, #44]	@ (8000958 <main+0x9c>)
 800092a:	4620      	mov	r0, r4
 800092c:	f7ff fe91 	bl	8000652 <lcd_puts>
 8000930:	2100      	movs	r1, #0
 8000932:	4620      	mov	r0, r4
 8000934:	2201      	movs	r2, #1
 8000936:	f7ff fe38 	bl	80005aa <lcd_gotoxy>
 800093a:	4908      	ldr	r1, [pc, #32]	@ (800095c <main+0xa0>)
 800093c:	4620      	mov	r0, r4
 800093e:	f7ff fe88 	bl	8000652 <lcd_puts>
 8000942:	e7fe      	b.n	8000942 <main+0x86>
 8000944:	08001c14 	.word	0x08001c14
 8000948:	200000cc 	.word	0x200000cc
 800094c:	08001c20 	.word	0x08001c20
 8000950:	08001c2d 	.word	0x08001c2d
 8000954:	20000078 	.word	0x20000078
 8000958:	08001c68 	.word	0x08001c68
 800095c:	08001c76 	.word	0x08001c76

08000960 <Error_Handler>:
 8000960:	b672      	cpsid	i
 8000962:	e7fe      	b.n	8000962 <Error_Handler+0x2>

08000964 <HAL_MspInit>:
 8000964:	b082      	sub	sp, #8
 8000966:	4b0c      	ldr	r3, [pc, #48]	@ (8000998 <HAL_MspInit+0x34>)
 8000968:	2100      	movs	r1, #0
 800096a:	9100      	str	r1, [sp, #0]
 800096c:	6c5a      	ldr	r2, [r3, #68]	@ 0x44
 800096e:	f442 4280 	orr.w	r2, r2, #16384	@ 0x4000
 8000972:	645a      	str	r2, [r3, #68]	@ 0x44
 8000974:	6c5a      	ldr	r2, [r3, #68]	@ 0x44
 8000976:	f402 4280 	and.w	r2, r2, #16384	@ 0x4000
 800097a:	9200      	str	r2, [sp, #0]
 800097c:	9a00      	ldr	r2, [sp, #0]
 800097e:	9101      	str	r1, [sp, #4]
 8000980:	6c1a      	ldr	r2, [r3, #64]	@ 0x40
 8000982:	f042 5280 	orr.w	r2, r2, #268435456	@ 0x10000000
 8000986:	641a      	str	r2, [r3, #64]	@ 0x40
 8000988:	6c1b      	ldr	r3, [r3, #64]	@ 0x40
 800098a:	f003 5380 	and.w	r3, r3, #268435456	@ 0x10000000
 800098e:	9301      	str	r3, [sp, #4]
 8000990:	9b01      	ldr	r3, [sp, #4]
 8000992:	b002      	add	sp, #8
 8000994:	4770      	bx	lr
 8000996:	bf00      	nop
 8000998:	40023800 	.word	0x40023800

0800099c <NMI_Handler>:
 800099c:	e7fe      	b.n	800099c <NMI_Handler>

0800099e <HardFault_Handler>:
 800099e:	e7fe      	b.n	800099e <HardFault_Handler>

080009a0 <MemManage_Handler>:
 80009a0:	e7fe      	b.n	80009a0 <MemManage_Handler>

080009a2 <BusFault_Handler>:
 80009a2:	e7fe      	b.n	80009a2 <BusFault_Handler>

080009a4 <UsageFault_Handler>:
 80009a4:	e7fe      	b.n	80009a4 <UsageFault_Handler>

080009a6 <SVC_Handler>:
 80009a6:	4770      	bx	lr

080009a8 <DebugMon_Handler>:
 80009a8:	4770      	bx	lr

080009aa <PendSV_Handler>:
 80009aa:	4770      	bx	lr

080009ac <SysTick_Handler>:
 80009ac:	f000 b8a2 	b.w	8000af4 <HAL_IncTick>

080009b0 <_getpid>:
 80009b0:	2001      	movs	r0, #1
 80009b2:	4770      	bx	lr

080009b4 <_kill>:
 80009b4:	b508      	push	{r3, lr}
 80009b6:	f001 f89d 	bl	8001af4 <__errno>
 80009ba:	2316      	movs	r3, #22
 80009bc:	6003      	str	r3, [r0, #0]
 80009be:	f04f 30ff 	mov.w	r0, #4294967295
 80009c2:	bd08      	pop	{r3, pc}

080009c4 <_exit>:
 80009c4:	b508      	push	{r3, lr}
 80009c6:	f001 f895 	bl	8001af4 <__errno>
 80009ca:	2316      	movs	r3, #22
 80009cc:	6003      	str	r3, [r0, #0]
 80009ce:	e7fe      	b.n	80009ce <_exit+0xa>

080009d0 <_sbrk>:
 80009d0:	4a0b      	ldr	r2, [pc, #44]	@ (8000a00 <_sbrk+0x30>)
 80009d2:	6811      	ldr	r1, [r2, #0]
 80009d4:	b510      	push	{r4, lr}
 80009d6:	4603      	mov	r3, r0
 80009d8:	b909      	cbnz	r1, 80009de <_sbrk+0xe>
 80009da:	490a      	ldr	r1, [pc, #40]	@ (8000a04 <_sbrk+0x34>)
 80009dc:	6011      	str	r1, [r2, #0]
 80009de:	6810      	ldr	r0, [r2, #0]
 80009e0:	4909      	ldr	r1, [pc, #36]	@ (8000a08 <_sbrk+0x38>)
 80009e2:	4c0a      	ldr	r4, [pc, #40]	@ (8000a0c <_sbrk+0x3c>)
 80009e4:	4403      	add	r3, r0
 80009e6:	1b09      	subs	r1, r1, r4
 80009e8:	428b      	cmp	r3, r1
 80009ea:	d906      	bls.n	80009fa <_sbrk+0x2a>
 80009ec:	f001 f882 	bl	8001af4 <__errno>
 80009f0:	230c      	movs	r3, #12
 80009f2:	6003      	str	r3, [r0, #0]
 80009f4:	f04f 30ff 	mov.w	r0, #4294967295
 80009f8:	bd10      	pop	{r4, pc}
 80009fa:	6013      	str	r3, [r2, #0]
 80009fc:	e7fc      	b.n	80009f8 <_sbrk+0x28>
 80009fe:	bf00      	nop
 8000a00:	200000d4 	.word	0x200000d4
 8000a04:	20000228 	.word	0x20000228
 8000a08:	20018000 	.word	0x20018000
 8000a0c:	00000400 	.word	0x00000400

08000a10 <SystemInit>:
 8000a10:	4a03      	ldr	r2, [pc, #12]	@ (8000a20 <SystemInit+0x10>)
 8000a12:	f8d2 3088 	ldr.w	r3, [r2, #136]	@ 0x88
 8000a16:	f443 0370 	orr.w	r3, r3, #15728640	@ 0xf00000
 8000a1a:	f8c2 3088 	str.w	r3, [r2, #136]	@ 0x88
 8000a1e:	4770      	bx	lr
 8000a20:	e000ed00 	.word	0xe000ed00

08000a24 <Reset_Handler>:
 8000a24:	f8df d034 	ldr.w	sp, [pc, #52]	@ 8000a5c <LoopFillZerobss+0xe>
 8000a28:	f7ff fff2 	bl	8000a10 <SystemInit>
 8000a2c:	480c      	ldr	r0, [pc, #48]	@ (8000a60 <LoopFillZerobss+0x12>)
 8000a2e:	490d      	ldr	r1, [pc, #52]	@ (8000a64 <LoopFillZerobss+0x16>)
 8000a30:	4a0d      	ldr	r2, [pc, #52]	@ (8000a68 <LoopFillZerobss+0x1a>)
 8000a32:	2300      	movs	r3, #0
 8000a34:	e002      	b.n	8000a3c <LoopCopyDataInit>

08000a36 <CopyDataInit>:
 8000a36:	58d4      	ldr	r4, [r2, r3]
 8000a38:	50c4      	str	r4, [r0, r3]
 8000a3a:	3304      	adds	r3, #4

08000a3c <LoopCopyDataInit>:
 8000a3c:	18c4      	adds	r4, r0, r3
 8000a3e:	428c      	cmp	r4, r1
 8000a40:	d3f9      	bcc.n	8000a36 <CopyDataInit>
 8000a42:	4a0a      	ldr	r2, [pc, #40]	@ (8000a6c <LoopFillZerobss+0x1e>)
 8000a44:	4c0a      	ldr	r4, [pc, #40]	@ (8000a70 <LoopFillZerobss+0x22>)
 8000a46:	2300      	movs	r3, #0
 8000a48:	e001      	b.n	8000a4e <LoopFillZerobss>

08000a4a <FillZerobss>:
 8000a4a:	6013      	str	r3, [r2, #0]
 8000a4c:	3204      	adds	r2, #4

08000a4e <LoopFillZerobss>:
 8000a4e:	42a2      	cmp	r2, r4
 8000a50:	d3fb      	bcc.n	8000a4a <FillZerobss>
 8000a52:	f001 f855 	bl	8001b00 <__libc_init_array>
 8000a56:	f7ff ff31 	bl	80008bc <main>
 8000a5a:	4770      	bx	lr
 8000a5c:	20018000 	.word	0x20018000
 8000a60:	20000000 	.word	0x20000000
 8000a64:	2000005c 	.word	0x2000005c
 8000a68:	08001cc4 	.word	0x08001cc4
 8000a6c:	2000005c 	.word	0x2000005c
 8000a70:	20000228 	.word	0x20000228

08000a74 <ADC_IRQHandler>:
 8000a74:	e7fe      	b.n	8000a74 <ADC_IRQHandler>
	...

08000a78 <HAL_InitTick>:
 8000a78:	b538      	push	{r3, r4, r5, lr}
 8000a7a:	4b0e      	ldr	r3, [pc, #56]	@ (8000ab4 <HAL_InitTick+0x3c>)
 8000a7c:	781a      	ldrb	r2, [r3, #0]
 8000a7e:	f44f 737a 	mov.w	r3, #1000	@ 0x3e8
 8000a82:	fbb3 f3f2 	udiv	r3, r3, r2
 8000a86:	4a0c      	ldr	r2, [pc, #48]	@ (8000ab8 <HAL_InitTick+0x40>)
 8000a88:	4605      	mov	r5, r0
 8000a8a:	6810      	ldr	r0, [r2, #0]
 8000a8c:	fbb0 f0f3 	udiv	r0, r0, r3
 8000a90:	f000 f89a 	bl	8000bc8 <HAL_SYSTICK_Config>
 8000a94:	4604      	mov	r4, r0
 8000a96:	b958      	cbnz	r0, 8000ab0 <HAL_InitTick+0x38>
 8000a98:	2d0f      	cmp	r5, #15
 8000a9a:	d809      	bhi.n	8000ab0 <HAL_InitTick+0x38>
 8000a9c:	4602      	mov	r2, r0
 8000a9e:	4629      	mov	r1, r5
 8000aa0:	f04f 30ff 	mov.w	r0, #4294967295
 8000aa4:	f000 f85e 	bl	8000b64 <HAL_NVIC_SetPriority>
 8000aa8:	4b04      	ldr	r3, [pc, #16]	@ (8000abc <HAL_InitTick+0x44>)
 8000aaa:	4620      	mov	r0, r4
 8000aac:	601d      	str	r5, [r3, #0]
 8000aae:	bd38      	pop	{r3, r4, r5, pc}
 8000ab0:	2001      	movs	r0, #1
 8000ab2:	e7fc      	b.n	8000aae <HAL_InitTick+0x36>
 8000ab4:	20000004 	.word	0x20000004
 8000ab8:	20000000 	.word	0x20000000
 8000abc:	20000008 	.word	0x20000008

08000ac0 <HAL_Init>:
 8000ac0:	b508      	push	{r3, lr}
 8000ac2:	4b0b      	ldr	r3, [pc, #44]	@ (8000af0 <HAL_Init+0x30>)
 8000ac4:	681a      	ldr	r2, [r3, #0]
 8000ac6:	f442 7200 	orr.w	r2, r2, #512	@ 0x200
 8000aca:	601a      	str	r2, [r3, #0]
 8000acc:	681a      	ldr	r2, [r3, #0]
 8000ace:	f442 6280 	orr.w	r2, r2, #1024	@ 0x400
 8000ad2:	601a      	str	r2, [r3, #0]
 8000ad4:	681a      	ldr	r2, [r3, #0]
 8000ad6:	f442 7280 	orr.w	r2, r2, #256	@ 0x100
 8000ada:	601a      	str	r2, [r3, #0]
 8000adc:	2003      	movs	r0, #3
 8000ade:	f000 f82f 	bl	8000b40 <HAL_NVIC_SetPriorityGrouping>
 8000ae2:	200f      	movs	r0, #15
 8000ae4:	f7ff ffc8 	bl	8000a78 <HAL_InitTick>
 8000ae8:	f7ff ff3c 	bl	8000964 <HAL_MspInit>
 8000aec:	2000      	movs	r0, #0
 8000aee:	bd08      	pop	{r3, pc}
 8000af0:	40023c00 	.word	0x40023c00

08000af4 <HAL_IncTick>:
 8000af4:	4a03      	ldr	r2, [pc, #12]	@ (8000b04 <HAL_IncTick+0x10>)
 8000af6:	4b04      	ldr	r3, [pc, #16]	@ (8000b08 <HAL_IncTick+0x14>)
 8000af8:	6811      	ldr	r1, [r2, #0]
 8000afa:	781b      	ldrb	r3, [r3, #0]
 8000afc:	440b      	add	r3, r1
 8000afe:	6013      	str	r3, [r2, #0]
 8000b00:	4770      	bx	lr
 8000b02:	bf00      	nop
 8000b04:	200000d8 	.word	0x200000d8
 8000b08:	20000004 	.word	0x20000004

08000b0c <HAL_GetTick>:
 8000b0c:	4b01      	ldr	r3, [pc, #4]	@ (8000b14 <HAL_GetTick+0x8>)
 8000b0e:	6818      	ldr	r0, [r3, #0]
 8000b10:	4770      	bx	lr
 8000b12:	bf00      	nop
 8000b14:	200000d8 	.word	0x200000d8

08000b18 <HAL_Delay>:
 8000b18:	b538      	push	{r3, r4, r5, lr}
 8000b1a:	4604      	mov	r4, r0
 8000b1c:	f7ff fff6 	bl	8000b0c <HAL_GetTick>
 8000b20:	1c63      	adds	r3, r4, #1
 8000b22:	bf1c      	itt	ne
 8000b24:	4b05      	ldrne	r3, [pc, #20]	@ (8000b3c <HAL_Delay+0x24>)
 8000b26:	781b      	ldrbne	r3, [r3, #0]
 8000b28:	4605      	mov	r5, r0
 8000b2a:	bf18      	it	ne
 8000b2c:	18e4      	addne	r4, r4, r3
 8000b2e:	f7ff ffed 	bl	8000b0c <HAL_GetTick>
 8000b32:	1b43      	subs	r3, r0, r5
 8000b34:	42a3      	cmp	r3, r4
 8000b36:	d3fa      	bcc.n	8000b2e <HAL_Delay+0x16>
 8000b38:	bd38      	pop	{r3, r4, r5, pc}
 8000b3a:	bf00      	nop
 8000b3c:	20000004 	.word	0x20000004

08000b40 <HAL_NVIC_SetPriorityGrouping>:
 8000b40:	4907      	ldr	r1, [pc, #28]	@ (8000b60 <HAL_NVIC_SetPriorityGrouping+0x20>)
 8000b42:	68ca      	ldr	r2, [r1, #12]
 8000b44:	f422 62e0 	bic.w	r2, r2, #1792	@ 0x700
 8000b48:	0203      	lsls	r3, r0, #8
 8000b4a:	0412      	lsls	r2, r2, #16
 8000b4c:	f403 63e0 	and.w	r3, r3, #1792	@ 0x700
 8000b50:	0c12      	lsrs	r2, r2, #16
 8000b52:	4313      	orrs	r3, r2
 8000b54:	f043 63bf 	orr.w	r3, r3, #100139008	@ 0x5f80000
 8000b58:	f443 3300 	orr.w	r3, r3, #131072	@ 0x20000
 8000b5c:	60cb      	str	r3, [r1, #12]
 8000b5e:	4770      	bx	lr
 8000b60:	e000ed00 	.word	0xe000ed00

08000b64 <HAL_NVIC_SetPriority>:
 8000b64:	4b16      	ldr	r3, [pc, #88]	@ (8000bc0 <HAL_NVIC_SetPriority+0x5c>)
 8000b66:	b530      	push	{r4, r5, lr}
 8000b68:	68dc      	ldr	r4, [r3, #12]
 8000b6a:	f3c4 2402 	ubfx	r4, r4, #8, #3
 8000b6e:	f1c4 0307 	rsb	r3, r4, #7
 8000b72:	1d25      	adds	r5, r4, #4
 8000b74:	2b04      	cmp	r3, #4
 8000b76:	bf28      	it	cs
 8000b78:	2304      	movcs	r3, #4
 8000b7a:	2d06      	cmp	r5, #6
 8000b7c:	f04f 35ff 	mov.w	r5, #4294967295
 8000b80:	bf8c      	ite	hi
 8000b82:	3c03      	subhi	r4, #3
 8000b84:	2400      	movls	r4, #0
 8000b86:	fa05 f303 	lsl.w	r3, r5, r3
 8000b8a:	ea21 0303 	bic.w	r3, r1, r3
 8000b8e:	40a5      	lsls	r5, r4
 8000b90:	ea22 0205 	bic.w	r2, r2, r5
 8000b94:	40a3      	lsls	r3, r4
 8000b96:	2800      	cmp	r0, #0
 8000b98:	ea43 0302 	orr.w	r3, r3, r2
 8000b9c:	bfac      	ite	ge
 8000b9e:	f100 4060 	addge.w	r0, r0, #3758096384	@ 0xe0000000
 8000ba2:	4a08      	ldrlt	r2, [pc, #32]	@ (8000bc4 <HAL_NVIC_SetPriority+0x60>)
 8000ba4:	ea4f 1303 	mov.w	r3, r3, lsl #4
 8000ba8:	bfb8      	it	lt
 8000baa:	f000 000f 	andlt.w	r0, r0, #15
 8000bae:	b2db      	uxtb	r3, r3
 8000bb0:	bfaa      	itet	ge
 8000bb2:	f500 4061 	addge.w	r0, r0, #57600	@ 0xe100
 8000bb6:	5413      	strblt	r3, [r2, r0]
 8000bb8:	f880 3300 	strbge.w	r3, [r0, #768]	@ 0x300
 8000bbc:	bd30      	pop	{r4, r5, pc}
 8000bbe:	bf00      	nop
 8000bc0:	e000ed00 	.word	0xe000ed00
 8000bc4:	e000ed14 	.word	0xe000ed14

08000bc8 <HAL_SYSTICK_Config>:
 8000bc8:	3801      	subs	r0, #1
 8000bca:	f1b0 7f80 	cmp.w	r0, #16777216	@ 0x1000000
 8000bce:	d20b      	bcs.n	8000be8 <HAL_SYSTICK_Config+0x20>
 8000bd0:	f04f 23e0 	mov.w	r3, #3758153728	@ 0xe000e000
 8000bd4:	4a05      	ldr	r2, [pc, #20]	@ (8000bec <HAL_SYSTICK_Config+0x24>)
 8000bd6:	6158      	str	r0, [r3, #20]
 8000bd8:	21f0      	movs	r1, #240	@ 0xf0
 8000bda:	f882 1023 	strb.w	r1, [r2, #35]	@ 0x23
 8000bde:	2000      	movs	r0, #0
 8000be0:	2207      	movs	r2, #7
 8000be2:	6198      	str	r0, [r3, #24]
 8000be4:	611a      	str	r2, [r3, #16]
 8000be6:	4770      	bx	lr
 8000be8:	2001      	movs	r0, #1
 8000bea:	4770      	bx	lr
 8000bec:	e000ed00 	.word	0xe000ed00

08000bf0 <HAL_GPIO_Init>:
 8000bf0:	e92d 4ff7 	stmdb	sp!, {r0, r1, r2, r4, r5, r6, r7, r8, r9, sl, fp, lr}
 8000bf4:	f8df 9180 	ldr.w	r9, [pc, #384]	@ 8000d78 <HAL_GPIO_Init+0x188>
 8000bf8:	4a5d      	ldr	r2, [pc, #372]	@ (8000d70 <HAL_GPIO_Init+0x180>)
 8000bfa:	2300      	movs	r3, #0
 8000bfc:	680d      	ldr	r5, [r1, #0]
 8000bfe:	2401      	movs	r4, #1
 8000c00:	409c      	lsls	r4, r3
 8000c02:	ea04 0605 	and.w	r6, r4, r5
 8000c06:	43ac      	bics	r4, r5
 8000c08:	f040 80a3 	bne.w	8000d52 <HAL_GPIO_Init+0x162>
 8000c0c:	684d      	ldr	r5, [r1, #4]
 8000c0e:	2703      	movs	r7, #3
 8000c10:	f005 0403 	and.w	r4, r5, #3
 8000c14:	ea4f 0843 	mov.w	r8, r3, lsl #1
 8000c18:	fa07 fc08 	lsl.w	ip, r7, r8
 8000c1c:	1e67      	subs	r7, r4, #1
 8000c1e:	2f01      	cmp	r7, #1
 8000c20:	ea6f 0c0c 	mvn.w	ip, ip
 8000c24:	d834      	bhi.n	8000c90 <HAL_GPIO_Init+0xa0>
 8000c26:	6887      	ldr	r7, [r0, #8]
 8000c28:	ea07 0e0c 	and.w	lr, r7, ip
 8000c2c:	68cf      	ldr	r7, [r1, #12]
 8000c2e:	fa07 f708 	lsl.w	r7, r7, r8
 8000c32:	ea47 070e 	orr.w	r7, r7, lr
 8000c36:	6087      	str	r7, [r0, #8]
 8000c38:	6847      	ldr	r7, [r0, #4]
 8000c3a:	ea27 0e06 	bic.w	lr, r7, r6
 8000c3e:	f3c5 1700 	ubfx	r7, r5, #4, #1
 8000c42:	409f      	lsls	r7, r3
 8000c44:	ea47 070e 	orr.w	r7, r7, lr
 8000c48:	6047      	str	r7, [r0, #4]
 8000c4a:	68c7      	ldr	r7, [r0, #12]
 8000c4c:	ea07 0e0c 	and.w	lr, r7, ip
 8000c50:	688f      	ldr	r7, [r1, #8]
 8000c52:	fa07 f708 	lsl.w	r7, r7, r8
 8000c56:	ea47 070e 	orr.w	r7, r7, lr
 8000c5a:	2c02      	cmp	r4, #2
 8000c5c:	60c7      	str	r7, [r0, #12]
 8000c5e:	d119      	bne.n	8000c94 <HAL_GPIO_Init+0xa4>
 8000c60:	ea4f 0ad3 	mov.w	sl, r3, lsr #3
 8000c64:	eb00 0a8a 	add.w	sl, r0, sl, lsl #2
 8000c68:	f003 0b07 	and.w	fp, r3, #7
 8000c6c:	f8da 7020 	ldr.w	r7, [sl, #32]
 8000c70:	ea4f 0b8b 	mov.w	fp, fp, lsl #2
 8000c74:	f04f 0e0f 	mov.w	lr, #15
 8000c78:	fa0e fe0b 	lsl.w	lr, lr, fp
 8000c7c:	ea27 0e0e 	bic.w	lr, r7, lr
 8000c80:	690f      	ldr	r7, [r1, #16]
 8000c82:	fa07 f70b 	lsl.w	r7, r7, fp
 8000c86:	ea47 070e 	orr.w	r7, r7, lr
 8000c8a:	f8ca 7020 	str.w	r7, [sl, #32]
 8000c8e:	e001      	b.n	8000c94 <HAL_GPIO_Init+0xa4>
 8000c90:	2c03      	cmp	r4, #3
 8000c92:	d1da      	bne.n	8000c4a <HAL_GPIO_Init+0x5a>
 8000c94:	6807      	ldr	r7, [r0, #0]
 8000c96:	fa04 f408 	lsl.w	r4, r4, r8
 8000c9a:	ea07 070c 	and.w	r7, r7, ip
 8000c9e:	433c      	orrs	r4, r7
 8000ca0:	f415 3f40 	tst.w	r5, #196608	@ 0x30000
 8000ca4:	6004      	str	r4, [r0, #0]
 8000ca6:	d054      	beq.n	8000d52 <HAL_GPIO_Init+0x162>
 8000ca8:	2400      	movs	r4, #0
 8000caa:	9401      	str	r4, [sp, #4]
 8000cac:	f8d9 4044 	ldr.w	r4, [r9, #68]	@ 0x44
 8000cb0:	f444 4480 	orr.w	r4, r4, #16384	@ 0x4000
 8000cb4:	f8c9 4044 	str.w	r4, [r9, #68]	@ 0x44
 8000cb8:	f8d9 4044 	ldr.w	r4, [r9, #68]	@ 0x44
 8000cbc:	f023 0703 	bic.w	r7, r3, #3
 8000cc0:	f107 4780 	add.w	r7, r7, #1073741824	@ 0x40000000
 8000cc4:	f404 4480 	and.w	r4, r4, #16384	@ 0x4000
 8000cc8:	f507 379c 	add.w	r7, r7, #79872	@ 0x13800
 8000ccc:	9401      	str	r4, [sp, #4]
 8000cce:	f003 0c03 	and.w	ip, r3, #3
 8000cd2:	9c01      	ldr	r4, [sp, #4]
 8000cd4:	f8d7 e008 	ldr.w	lr, [r7, #8]
 8000cd8:	ea4f 0c8c 	mov.w	ip, ip, lsl #2
 8000cdc:	240f      	movs	r4, #15
 8000cde:	fa04 f40c 	lsl.w	r4, r4, ip
 8000ce2:	ea2e 0e04 	bic.w	lr, lr, r4
 8000ce6:	4c23      	ldr	r4, [pc, #140]	@ (8000d74 <HAL_GPIO_Init+0x184>)
 8000ce8:	42a0      	cmp	r0, r4
 8000cea:	d039      	beq.n	8000d60 <HAL_GPIO_Init+0x170>
 8000cec:	f504 6480 	add.w	r4, r4, #1024	@ 0x400
 8000cf0:	42a0      	cmp	r0, r4
 8000cf2:	d037      	beq.n	8000d64 <HAL_GPIO_Init+0x174>
 8000cf4:	f504 6480 	add.w	r4, r4, #1024	@ 0x400
 8000cf8:	42a0      	cmp	r0, r4
 8000cfa:	d035      	beq.n	8000d68 <HAL_GPIO_Init+0x178>
 8000cfc:	f504 6480 	add.w	r4, r4, #1024	@ 0x400
 8000d00:	42a0      	cmp	r0, r4
 8000d02:	d033      	beq.n	8000d6c <HAL_GPIO_Init+0x17c>
 8000d04:	f504 6480 	add.w	r4, r4, #1024	@ 0x400
 8000d08:	42a0      	cmp	r0, r4
 8000d0a:	bf14      	ite	ne
 8000d0c:	2407      	movne	r4, #7
 8000d0e:	2404      	moveq	r4, #4
 8000d10:	fa04 f40c 	lsl.w	r4, r4, ip
 8000d14:	ea44 040e 	orr.w	r4, r4, lr
 8000d18:	60bc      	str	r4, [r7, #8]
 8000d1a:	6894      	ldr	r4, [r2, #8]
 8000d1c:	43f7      	mvns	r7, r6
 8000d1e:	f415 1f80 	tst.w	r5, #1048576	@ 0x100000
 8000d22:	bf0c      	ite	eq
 8000d24:	403c      	andeq	r4, r7
 8000d26:	4334      	orrne	r4, r6
 8000d28:	6094      	str	r4, [r2, #8]
 8000d2a:	68d4      	ldr	r4, [r2, #12]
 8000d2c:	f415 1f00 	tst.w	r5, #2097152	@ 0x200000
 8000d30:	bf0c      	ite	eq
 8000d32:	403c      	andeq	r4, r7
 8000d34:	4334      	orrne	r4, r6
 8000d36:	60d4      	str	r4, [r2, #12]
 8000d38:	6854      	ldr	r4, [r2, #4]
 8000d3a:	f415 3f00 	tst.w	r5, #131072	@ 0x20000
 8000d3e:	bf0c      	ite	eq
 8000d40:	403c      	andeq	r4, r7
 8000d42:	4334      	orrne	r4, r6
 8000d44:	6054      	str	r4, [r2, #4]
 8000d46:	6814      	ldr	r4, [r2, #0]
 8000d48:	03ed      	lsls	r5, r5, #15
 8000d4a:	bf54      	ite	pl
 8000d4c:	403c      	andpl	r4, r7
 8000d4e:	4334      	orrmi	r4, r6
 8000d50:	6014      	str	r4, [r2, #0]
 8000d52:	3301      	adds	r3, #1
 8000d54:	2b10      	cmp	r3, #16
 8000d56:	f47f af51 	bne.w	8000bfc <HAL_GPIO_Init+0xc>
 8000d5a:	b003      	add	sp, #12
 8000d5c:	e8bd 8ff0 	ldmia.w	sp!, {r4, r5, r6, r7, r8, r9, sl, fp, pc}
 8000d60:	2400      	movs	r4, #0
 8000d62:	e7d5      	b.n	8000d10 <HAL_GPIO_Init+0x120>
 8000d64:	2401      	movs	r4, #1
 8000d66:	e7d3      	b.n	8000d10 <HAL_GPIO_Init+0x120>
 8000d68:	2402      	movs	r4, #2
 8000d6a:	e7d1      	b.n	8000d10 <HAL_GPIO_Init+0x120>
 8000d6c:	2403      	movs	r4, #3
 8000d6e:	e7cf      	b.n	8000d10 <HAL_GPIO_Init+0x120>
 8000d70:	40013c00 	.word	0x40013c00
 8000d74:	40020000 	.word	0x40020000
 8000d78:	40023800 	.word	0x40023800

08000d7c <I2C_IsAcknowledgeFailed>:
 8000d7c:	6801      	ldr	r1, [r0, #0]
 8000d7e:	694b      	ldr	r3, [r1, #20]
 8000d80:	f413 6380 	ands.w	r3, r3, #1024	@ 0x400
 8000d84:	f04f 0200 	mov.w	r2, #0
 8000d88:	d010      	beq.n	8000dac <I2C_IsAcknowledgeFailed+0x30>
 8000d8a:	f46f 6380 	mvn.w	r3, #1024	@ 0x400
 8000d8e:	614b      	str	r3, [r1, #20]
 8000d90:	2320      	movs	r3, #32
 8000d92:	6302      	str	r2, [r0, #48]	@ 0x30
 8000d94:	f880 303d 	strb.w	r3, [r0, #61]	@ 0x3d
 8000d98:	f880 203e 	strb.w	r2, [r0, #62]	@ 0x3e
 8000d9c:	6c03      	ldr	r3, [r0, #64]	@ 0x40
 8000d9e:	f880 203c 	strb.w	r2, [r0, #60]	@ 0x3c
 8000da2:	f043 0304 	orr.w	r3, r3, #4
 8000da6:	6403      	str	r3, [r0, #64]	@ 0x40
 8000da8:	2001      	movs	r0, #1
 8000daa:	4770      	bx	lr
 8000dac:	4618      	mov	r0, r3
 8000dae:	4770      	bx	lr

08000db0 <I2C_WaitOnFlagUntilTimeout>:
 8000db0:	e92d 46f8 	stmdb	sp!, {r3, r4, r5, r6, r7, r9, sl, lr}
 8000db4:	4606      	mov	r6, r0
 8000db6:	460f      	mov	r7, r1
 8000db8:	4691      	mov	r9, r2
 8000dba:	461d      	mov	r5, r3
 8000dbc:	ea4f 4a11 	mov.w	sl, r1, lsr #16
 8000dc0:	6833      	ldr	r3, [r6, #0]
 8000dc2:	f1ba 0f01 	cmp.w	sl, #1
 8000dc6:	bf0c      	ite	eq
 8000dc8:	695c      	ldreq	r4, [r3, #20]
 8000dca:	699c      	ldrne	r4, [r3, #24]
 8000dcc:	ea27 0404 	bic.w	r4, r7, r4
 8000dd0:	b2a4      	uxth	r4, r4
 8000dd2:	fab4 f484 	clz	r4, r4
 8000dd6:	0964      	lsrs	r4, r4, #5
 8000dd8:	45a1      	cmp	r9, r4
 8000dda:	d001      	beq.n	8000de0 <I2C_WaitOnFlagUntilTimeout+0x30>
 8000ddc:	2000      	movs	r0, #0
 8000dde:	e025      	b.n	8000e2c <I2C_WaitOnFlagUntilTimeout+0x7c>
 8000de0:	1c6a      	adds	r2, r5, #1
 8000de2:	d0ee      	beq.n	8000dc2 <I2C_WaitOnFlagUntilTimeout+0x12>
 8000de4:	f7ff fe92 	bl	8000b0c <HAL_GetTick>
 8000de8:	9b08      	ldr	r3, [sp, #32]
 8000dea:	1ac0      	subs	r0, r0, r3
 8000dec:	42a8      	cmp	r0, r5
 8000dee:	d801      	bhi.n	8000df4 <I2C_WaitOnFlagUntilTimeout+0x44>
 8000df0:	2d00      	cmp	r5, #0
 8000df2:	d1e5      	bne.n	8000dc0 <I2C_WaitOnFlagUntilTimeout+0x10>
 8000df4:	6833      	ldr	r3, [r6, #0]
 8000df6:	f1ba 0f01 	cmp.w	sl, #1
 8000dfa:	bf0c      	ite	eq
 8000dfc:	695b      	ldreq	r3, [r3, #20]
 8000dfe:	699b      	ldrne	r3, [r3, #24]
 8000e00:	ea27 0303 	bic.w	r3, r7, r3
 8000e04:	b29b      	uxth	r3, r3
 8000e06:	fab3 f383 	clz	r3, r3
 8000e0a:	095b      	lsrs	r3, r3, #5
 8000e0c:	4599      	cmp	r9, r3
 8000e0e:	d1d7      	bne.n	8000dc0 <I2C_WaitOnFlagUntilTimeout+0x10>
 8000e10:	2300      	movs	r3, #0
 8000e12:	2220      	movs	r2, #32
 8000e14:	6333      	str	r3, [r6, #48]	@ 0x30
 8000e16:	f886 203d 	strb.w	r2, [r6, #61]	@ 0x3d
 8000e1a:	f886 303e 	strb.w	r3, [r6, #62]	@ 0x3e
 8000e1e:	6c32      	ldr	r2, [r6, #64]	@ 0x40
 8000e20:	f886 303c 	strb.w	r3, [r6, #60]	@ 0x3c
 8000e24:	f042 0220 	orr.w	r2, r2, #32
 8000e28:	6432      	str	r2, [r6, #64]	@ 0x40
 8000e2a:	2001      	movs	r0, #1
 8000e2c:	e8bd 86f8 	ldmia.w	sp!, {r3, r4, r5, r6, r7, r9, sl, pc}

08000e30 <I2C_WaitOnMasterAddressFlagUntilTimeout>:
 8000e30:	e92d 41f0 	stmdb	sp!, {r4, r5, r6, r7, r8, lr}
 8000e34:	4604      	mov	r4, r0
 8000e36:	460f      	mov	r7, r1
 8000e38:	4616      	mov	r6, r2
 8000e3a:	4698      	mov	r8, r3
 8000e3c:	6825      	ldr	r5, [r4, #0]
 8000e3e:	6968      	ldr	r0, [r5, #20]
 8000e40:	ea27 0000 	bic.w	r0, r7, r0
 8000e44:	b280      	uxth	r0, r0
 8000e46:	b1c0      	cbz	r0, 8000e7a <I2C_WaitOnMasterAddressFlagUntilTimeout+0x4a>
 8000e48:	696b      	ldr	r3, [r5, #20]
 8000e4a:	055a      	lsls	r2, r3, #21
 8000e4c:	d517      	bpl.n	8000e7e <I2C_WaitOnMasterAddressFlagUntilTimeout+0x4e>
 8000e4e:	682b      	ldr	r3, [r5, #0]
 8000e50:	f443 7300 	orr.w	r3, r3, #512	@ 0x200
 8000e54:	602b      	str	r3, [r5, #0]
 8000e56:	f46f 6380 	mvn.w	r3, #1024	@ 0x400
 8000e5a:	616b      	str	r3, [r5, #20]
 8000e5c:	2220      	movs	r2, #32
 8000e5e:	2300      	movs	r3, #0
 8000e60:	6323      	str	r3, [r4, #48]	@ 0x30
 8000e62:	f884 203d 	strb.w	r2, [r4, #61]	@ 0x3d
 8000e66:	f884 303e 	strb.w	r3, [r4, #62]	@ 0x3e
 8000e6a:	6c23      	ldr	r3, [r4, #64]	@ 0x40
 8000e6c:	f043 0304 	orr.w	r3, r3, #4
 8000e70:	6423      	str	r3, [r4, #64]	@ 0x40
 8000e72:	2300      	movs	r3, #0
 8000e74:	f884 303c 	strb.w	r3, [r4, #60]	@ 0x3c
 8000e78:	2001      	movs	r0, #1
 8000e7a:	e8bd 81f0 	ldmia.w	sp!, {r4, r5, r6, r7, r8, pc}
 8000e7e:	1c73      	adds	r3, r6, #1
 8000e80:	d0dd      	beq.n	8000e3e <I2C_WaitOnMasterAddressFlagUntilTimeout+0xe>
 8000e82:	f7ff fe43 	bl	8000b0c <HAL_GetTick>
 8000e86:	eba0 0008 	sub.w	r0, r0, r8
 8000e8a:	42b0      	cmp	r0, r6
 8000e8c:	d801      	bhi.n	8000e92 <I2C_WaitOnMasterAddressFlagUntilTimeout+0x62>
 8000e8e:	2e00      	cmp	r6, #0
 8000e90:	d1d4      	bne.n	8000e3c <I2C_WaitOnMasterAddressFlagUntilTimeout+0xc>
 8000e92:	6823      	ldr	r3, [r4, #0]
 8000e94:	695a      	ldr	r2, [r3, #20]
 8000e96:	ea27 0202 	bic.w	r2, r7, r2
 8000e9a:	b292      	uxth	r2, r2
 8000e9c:	2a00      	cmp	r2, #0
 8000e9e:	d0cd      	beq.n	8000e3c <I2C_WaitOnMasterAddressFlagUntilTimeout+0xc>
 8000ea0:	2300      	movs	r3, #0
 8000ea2:	2220      	movs	r2, #32
 8000ea4:	6323      	str	r3, [r4, #48]	@ 0x30
 8000ea6:	f884 203d 	strb.w	r2, [r4, #61]	@ 0x3d
 8000eaa:	f884 303e 	strb.w	r3, [r4, #62]	@ 0x3e
 8000eae:	6c23      	ldr	r3, [r4, #64]	@ 0x40
 8000eb0:	4313      	orrs	r3, r2
 8000eb2:	e7dd      	b.n	8000e70 <I2C_WaitOnMasterAddressFlagUntilTimeout+0x40>

08000eb4 <I2C_WaitOnTXEFlagUntilTimeout>:
 8000eb4:	b570      	push	{r4, r5, r6, lr}
 8000eb6:	4604      	mov	r4, r0
 8000eb8:	460d      	mov	r5, r1
 8000eba:	4616      	mov	r6, r2
 8000ebc:	6823      	ldr	r3, [r4, #0]
 8000ebe:	695b      	ldr	r3, [r3, #20]
 8000ec0:	061b      	lsls	r3, r3, #24
 8000ec2:	d501      	bpl.n	8000ec8 <I2C_WaitOnTXEFlagUntilTimeout+0x14>
 8000ec4:	2000      	movs	r0, #0
 8000ec6:	e01e      	b.n	8000f06 <I2C_WaitOnTXEFlagUntilTimeout+0x52>
 8000ec8:	4620      	mov	r0, r4
 8000eca:	f7ff ff57 	bl	8000d7c <I2C_IsAcknowledgeFailed>
 8000ece:	b9c8      	cbnz	r0, 8000f04 <I2C_WaitOnTXEFlagUntilTimeout+0x50>
 8000ed0:	1c6a      	adds	r2, r5, #1
 8000ed2:	d0f3      	beq.n	8000ebc <I2C_WaitOnTXEFlagUntilTimeout+0x8>
 8000ed4:	f7ff fe1a 	bl	8000b0c <HAL_GetTick>
 8000ed8:	1b80      	subs	r0, r0, r6
 8000eda:	42a8      	cmp	r0, r5
 8000edc:	d801      	bhi.n	8000ee2 <I2C_WaitOnTXEFlagUntilTimeout+0x2e>
 8000ede:	2d00      	cmp	r5, #0
 8000ee0:	d1ec      	bne.n	8000ebc <I2C_WaitOnTXEFlagUntilTimeout+0x8>
 8000ee2:	6823      	ldr	r3, [r4, #0]
 8000ee4:	695b      	ldr	r3, [r3, #20]
 8000ee6:	f013 0380 	ands.w	r3, r3, #128	@ 0x80
 8000eea:	d1e7      	bne.n	8000ebc <I2C_WaitOnTXEFlagUntilTimeout+0x8>
 8000eec:	2220      	movs	r2, #32
 8000eee:	6323      	str	r3, [r4, #48]	@ 0x30
 8000ef0:	f884 203d 	strb.w	r2, [r4, #61]	@ 0x3d
 8000ef4:	f884 303e 	strb.w	r3, [r4, #62]	@ 0x3e
 8000ef8:	6c22      	ldr	r2, [r4, #64]	@ 0x40
 8000efa:	f884 303c 	strb.w	r3, [r4, #60]	@ 0x3c
 8000efe:	f042 0220 	orr.w	r2, r2, #32
 8000f02:	6422      	str	r2, [r4, #64]	@ 0x40
 8000f04:	2001      	movs	r0, #1
 8000f06:	bd70      	pop	{r4, r5, r6, pc}

08000f08 <I2C_WaitOnBTFFlagUntilTimeout>:
 8000f08:	b570      	push	{r4, r5, r6, lr}
 8000f0a:	4604      	mov	r4, r0
 8000f0c:	460d      	mov	r5, r1
 8000f0e:	4616      	mov	r6, r2
 8000f10:	6823      	ldr	r3, [r4, #0]
 8000f12:	695b      	ldr	r3, [r3, #20]
 8000f14:	075b      	lsls	r3, r3, #29
 8000f16:	d501      	bpl.n	8000f1c <I2C_WaitOnBTFFlagUntilTimeout+0x14>
 8000f18:	2000      	movs	r0, #0
 8000f1a:	e01e      	b.n	8000f5a <I2C_WaitOnBTFFlagUntilTimeout+0x52>
 8000f1c:	4620      	mov	r0, r4
 8000f1e:	f7ff ff2d 	bl	8000d7c <I2C_IsAcknowledgeFailed>
 8000f22:	b9c8      	cbnz	r0, 8000f58 <I2C_WaitOnBTFFlagUntilTimeout+0x50>
 8000f24:	1c6a      	adds	r2, r5, #1
 8000f26:	d0f3      	beq.n	8000f10 <I2C_WaitOnBTFFlagUntilTimeout+0x8>
 8000f28:	f7ff fdf0 	bl	8000b0c <HAL_GetTick>
 8000f2c:	1b80      	subs	r0, r0, r6
 8000f2e:	42a8      	cmp	r0, r5
 8000f30:	d801      	bhi.n	8000f36 <I2C_WaitOnBTFFlagUntilTimeout+0x2e>
 8000f32:	2d00      	cmp	r5, #0
 8000f34:	d1ec      	bne.n	8000f10 <I2C_WaitOnBTFFlagUntilTimeout+0x8>
 8000f36:	6823      	ldr	r3, [r4, #0]
 8000f38:	695b      	ldr	r3, [r3, #20]
 8000f3a:	f013 0304 	ands.w	r3, r3, #4
 8000f3e:	d1e7      	bne.n	8000f10 <I2C_WaitOnBTFFlagUntilTimeout+0x8>
 8000f40:	2220      	movs	r2, #32
 8000f42:	6323      	str	r3, [r4, #48]	@ 0x30
 8000f44:	f884 203d 	strb.w	r2, [r4, #61]	@ 0x3d
 8000f48:	f884 303e 	strb.w	r3, [r4, #62]	@ 0x3e
 8000f4c:	6c22      	ldr	r2, [r4, #64]	@ 0x40
 8000f4e:	f884 303c 	strb.w	r3, [r4, #60]	@ 0x3c
 8000f52:	f042 0220 	orr.w	r2, r2, #32
 8000f56:	6422      	str	r2, [r4, #64]	@ 0x40
 8000f58:	2001      	movs	r0, #1
 8000f5a:	bd70      	pop	{r4, r5, r6, pc}

08000f5c <HAL_I2C_Init>:
 8000f5c:	b570      	push	{r4, r5, r6, lr}
 8000f5e:	4604      	mov	r4, r0
 8000f60:	b908      	cbnz	r0, 8000f66 <HAL_I2C_Init+0xa>
 8000f62:	2001      	movs	r0, #1
 8000f64:	bd70      	pop	{r4, r5, r6, pc}
 8000f66:	f890 303d 	ldrb.w	r3, [r0, #61]	@ 0x3d
 8000f6a:	f003 02ff 	and.w	r2, r3, #255	@ 0xff
 8000f6e:	b91b      	cbnz	r3, 8000f78 <HAL_I2C_Init+0x1c>
 8000f70:	f880 203c 	strb.w	r2, [r0, #60]	@ 0x3c
 8000f74:	f7ff fbd4 	bl	8000720 <HAL_I2C_MspInit>
 8000f78:	2324      	movs	r3, #36	@ 0x24
 8000f7a:	f884 303d 	strb.w	r3, [r4, #61]	@ 0x3d
 8000f7e:	6823      	ldr	r3, [r4, #0]
 8000f80:	681a      	ldr	r2, [r3, #0]
 8000f82:	f022 0201 	bic.w	r2, r2, #1
 8000f86:	601a      	str	r2, [r3, #0]
 8000f88:	681a      	ldr	r2, [r3, #0]
 8000f8a:	f442 4200 	orr.w	r2, r2, #32768	@ 0x8000
 8000f8e:	601a      	str	r2, [r3, #0]
 8000f90:	681a      	ldr	r2, [r3, #0]
 8000f92:	f422 4200 	bic.w	r2, r2, #32768	@ 0x8000
 8000f96:	601a      	str	r2, [r3, #0]
 8000f98:	f000 fbd8 	bl	800174c <HAL_RCC_GetPCLK1Freq>
 8000f9c:	4b3f      	ldr	r3, [pc, #252]	@ (800109c <HAL_I2C_Init+0x140>)
 8000f9e:	6865      	ldr	r5, [r4, #4]
 8000fa0:	429d      	cmp	r5, r3
 8000fa2:	bf94      	ite	ls
 8000fa4:	4b3e      	ldrls	r3, [pc, #248]	@ (80010a0 <HAL_I2C_Init+0x144>)
 8000fa6:	4b3f      	ldrhi	r3, [pc, #252]	@ (80010a4 <HAL_I2C_Init+0x148>)
 8000fa8:	4298      	cmp	r0, r3
 8000faa:	bf8c      	ite	hi
 8000fac:	2300      	movhi	r3, #0
 8000fae:	2301      	movls	r3, #1
 8000fb0:	2b00      	cmp	r3, #0
 8000fb2:	d1d6      	bne.n	8000f62 <HAL_I2C_Init+0x6>
 8000fb4:	6822      	ldr	r2, [r4, #0]
 8000fb6:	4e39      	ldr	r6, [pc, #228]	@ (800109c <HAL_I2C_Init+0x140>)
 8000fb8:	6851      	ldr	r1, [r2, #4]
 8000fba:	4b3b      	ldr	r3, [pc, #236]	@ (80010a8 <HAL_I2C_Init+0x14c>)
 8000fbc:	fbb0 f3f3 	udiv	r3, r0, r3
 8000fc0:	f021 013f 	bic.w	r1, r1, #63	@ 0x3f
 8000fc4:	4319      	orrs	r1, r3
 8000fc6:	42b5      	cmp	r5, r6
 8000fc8:	6051      	str	r1, [r2, #4]
 8000fca:	bf88      	it	hi
 8000fcc:	f44f 7696 	movhi.w	r6, #300	@ 0x12c
 8000fd0:	6a11      	ldr	r1, [r2, #32]
 8000fd2:	bf88      	it	hi
 8000fd4:	4373      	mulhi	r3, r6
 8000fd6:	f021 013f 	bic.w	r1, r1, #63	@ 0x3f
 8000fda:	bf84      	itt	hi
 8000fdc:	f44f 767a 	movhi.w	r6, #1000	@ 0x3e8
 8000fe0:	fbb3 f3f6 	udivhi	r3, r3, r6
 8000fe4:	3301      	adds	r3, #1
 8000fe6:	430b      	orrs	r3, r1
 8000fe8:	6213      	str	r3, [r2, #32]
 8000fea:	69d1      	ldr	r1, [r2, #28]
 8000fec:	1e43      	subs	r3, r0, #1
 8000fee:	482b      	ldr	r0, [pc, #172]	@ (800109c <HAL_I2C_Init+0x140>)
 8000ff0:	f421 414f 	bic.w	r1, r1, #52992	@ 0xcf00
 8000ff4:	4285      	cmp	r5, r0
 8000ff6:	f021 01ff 	bic.w	r1, r1, #255	@ 0xff
 8000ffa:	d832      	bhi.n	8001062 <HAL_I2C_Init+0x106>
 8000ffc:	006d      	lsls	r5, r5, #1
 8000ffe:	f640 70fc 	movw	r0, #4092	@ 0xffc
 8001002:	fbb3 f3f5 	udiv	r3, r3, r5
 8001006:	3301      	adds	r3, #1
 8001008:	4203      	tst	r3, r0
 800100a:	d042      	beq.n	8001092 <HAL_I2C_Init+0x136>
 800100c:	f3c3 030b 	ubfx	r3, r3, #0, #12
 8001010:	4319      	orrs	r1, r3
 8001012:	61d1      	str	r1, [r2, #28]
 8001014:	e9d4 3007 	ldrd	r3, r0, [r4, #28]
 8001018:	6811      	ldr	r1, [r2, #0]
 800101a:	4303      	orrs	r3, r0
 800101c:	f021 01c0 	bic.w	r1, r1, #192	@ 0xc0
 8001020:	430b      	orrs	r3, r1
 8001022:	6013      	str	r3, [r2, #0]
 8001024:	6891      	ldr	r1, [r2, #8]
 8001026:	e9d4 0303 	ldrd	r0, r3, [r4, #12]
 800102a:	f421 4103 	bic.w	r1, r1, #33536	@ 0x8300
 800102e:	4303      	orrs	r3, r0
 8001030:	f021 01ff 	bic.w	r1, r1, #255	@ 0xff
 8001034:	430b      	orrs	r3, r1
 8001036:	6093      	str	r3, [r2, #8]
 8001038:	e9d4 3005 	ldrd	r3, r0, [r4, #20]
 800103c:	68d1      	ldr	r1, [r2, #12]
 800103e:	4303      	orrs	r3, r0
 8001040:	f021 01ff 	bic.w	r1, r1, #255	@ 0xff
 8001044:	430b      	orrs	r3, r1
 8001046:	60d3      	str	r3, [r2, #12]
 8001048:	6813      	ldr	r3, [r2, #0]
 800104a:	f043 0301 	orr.w	r3, r3, #1
 800104e:	6013      	str	r3, [r2, #0]
 8001050:	2000      	movs	r0, #0
 8001052:	2320      	movs	r3, #32
 8001054:	6420      	str	r0, [r4, #64]	@ 0x40
 8001056:	f884 303d 	strb.w	r3, [r4, #61]	@ 0x3d
 800105a:	6320      	str	r0, [r4, #48]	@ 0x30
 800105c:	f884 003e 	strb.w	r0, [r4, #62]	@ 0x3e
 8001060:	e780      	b.n	8000f64 <HAL_I2C_Init+0x8>
 8001062:	68a0      	ldr	r0, [r4, #8]
 8001064:	b950      	cbnz	r0, 800107c <HAL_I2C_Init+0x120>
 8001066:	eb05 0545 	add.w	r5, r5, r5, lsl #1
 800106a:	fbb3 f3f5 	udiv	r3, r3, r5
 800106e:	3301      	adds	r3, #1
 8001070:	f3c3 030b 	ubfx	r3, r3, #0, #12
 8001074:	b17b      	cbz	r3, 8001096 <HAL_I2C_Init+0x13a>
 8001076:	f443 4300 	orr.w	r3, r3, #32768	@ 0x8000
 800107a:	e7c9      	b.n	8001010 <HAL_I2C_Init+0xb4>
 800107c:	2019      	movs	r0, #25
 800107e:	4368      	muls	r0, r5
 8001080:	fbb3 f3f0 	udiv	r3, r3, r0
 8001084:	3301      	adds	r3, #1
 8001086:	f3c3 030b 	ubfx	r3, r3, #0, #12
 800108a:	b123      	cbz	r3, 8001096 <HAL_I2C_Init+0x13a>
 800108c:	f443 4340 	orr.w	r3, r3, #49152	@ 0xc000
 8001090:	e7be      	b.n	8001010 <HAL_I2C_Init+0xb4>
 8001092:	2304      	movs	r3, #4
 8001094:	e7bc      	b.n	8001010 <HAL_I2C_Init+0xb4>
 8001096:	2301      	movs	r3, #1
 8001098:	e7ba      	b.n	8001010 <HAL_I2C_Init+0xb4>
 800109a:	bf00      	nop
 800109c:	000186a0 	.word	0x000186a0
 80010a0:	001e847f 	.word	0x001e847f
 80010a4:	003d08ff 	.word	0x003d08ff
 80010a8:	000f4240 	.word	0x000f4240

080010ac <HAL_I2C_Master_Transmit>:
 80010ac:	e92d 43f0 	stmdb	sp!, {r4, r5, r6, r7, r8, r9, lr}
 80010b0:	4604      	mov	r4, r0
 80010b2:	b085      	sub	sp, #20
 80010b4:	4698      	mov	r8, r3
 80010b6:	9f0c      	ldr	r7, [sp, #48]	@ 0x30
 80010b8:	460d      	mov	r5, r1
 80010ba:	4691      	mov	r9, r2
 80010bc:	f7ff fd26 	bl	8000b0c <HAL_GetTick>
 80010c0:	f894 303d 	ldrb.w	r3, [r4, #61]	@ 0x3d
 80010c4:	2b20      	cmp	r3, #32
 80010c6:	4606      	mov	r6, r0
 80010c8:	d004      	beq.n	80010d4 <HAL_I2C_Master_Transmit+0x28>
 80010ca:	2502      	movs	r5, #2
 80010cc:	4628      	mov	r0, r5
 80010ce:	b005      	add	sp, #20
 80010d0:	e8bd 83f0 	ldmia.w	sp!, {r4, r5, r6, r7, r8, r9, pc}
 80010d4:	9000      	str	r0, [sp, #0]
 80010d6:	495e      	ldr	r1, [pc, #376]	@ (8001250 <HAL_I2C_Master_Transmit+0x1a4>)
 80010d8:	2319      	movs	r3, #25
 80010da:	2201      	movs	r2, #1
 80010dc:	4620      	mov	r0, r4
 80010de:	f7ff fe67 	bl	8000db0 <I2C_WaitOnFlagUntilTimeout>
 80010e2:	2800      	cmp	r0, #0
 80010e4:	d1f1      	bne.n	80010ca <HAL_I2C_Master_Transmit+0x1e>
 80010e6:	f894 303c 	ldrb.w	r3, [r4, #60]	@ 0x3c
 80010ea:	2b01      	cmp	r3, #1
 80010ec:	d0ed      	beq.n	80010ca <HAL_I2C_Master_Transmit+0x1e>
 80010ee:	6821      	ldr	r1, [r4, #0]
 80010f0:	2301      	movs	r3, #1
 80010f2:	f884 303c 	strb.w	r3, [r4, #60]	@ 0x3c
 80010f6:	680b      	ldr	r3, [r1, #0]
 80010f8:	07da      	lsls	r2, r3, #31
 80010fa:	bf5e      	ittt	pl
 80010fc:	680b      	ldrpl	r3, [r1, #0]
 80010fe:	f043 0301 	orrpl.w	r3, r3, #1
 8001102:	600b      	strpl	r3, [r1, #0]
 8001104:	680b      	ldr	r3, [r1, #0]
 8001106:	f423 6300 	bic.w	r3, r3, #2048	@ 0x800
 800110a:	600b      	str	r3, [r1, #0]
 800110c:	2321      	movs	r3, #33	@ 0x21
 800110e:	f884 303d 	strb.w	r3, [r4, #61]	@ 0x3d
 8001112:	2310      	movs	r3, #16
 8001114:	f884 303e 	strb.w	r3, [r4, #62]	@ 0x3e
 8001118:	2300      	movs	r3, #0
 800111a:	6423      	str	r3, [r4, #64]	@ 0x40
 800111c:	f8a4 802a 	strh.w	r8, [r4, #42]	@ 0x2a
 8001120:	8d63      	ldrh	r3, [r4, #42]	@ 0x2a
 8001122:	8523      	strh	r3, [r4, #40]	@ 0x28
 8001124:	4b4b      	ldr	r3, [pc, #300]	@ (8001254 <HAL_I2C_Master_Transmit+0x1a8>)
 8001126:	62e3      	str	r3, [r4, #44]	@ 0x2c
 8001128:	6ae3      	ldr	r3, [r4, #44]	@ 0x2c
 800112a:	f8c4 9024 	str.w	r9, [r4, #36]	@ 0x24
 800112e:	2b08      	cmp	r3, #8
 8001130:	d004      	beq.n	800113c <HAL_I2C_Master_Transmit+0x90>
 8001132:	2b01      	cmp	r3, #1
 8001134:	d002      	beq.n	800113c <HAL_I2C_Master_Transmit+0x90>
 8001136:	f513 3f80 	cmn.w	r3, #65536	@ 0x10000
 800113a:	d104      	bne.n	8001146 <HAL_I2C_Master_Transmit+0x9a>
 800113c:	680b      	ldr	r3, [r1, #0]
 800113e:	f443 7380 	orr.w	r3, r3, #256	@ 0x100
 8001142:	600b      	str	r3, [r1, #0]
 8001144:	e002      	b.n	800114c <HAL_I2C_Master_Transmit+0xa0>
 8001146:	6b23      	ldr	r3, [r4, #48]	@ 0x30
 8001148:	2b12      	cmp	r3, #18
 800114a:	d0f7      	beq.n	800113c <HAL_I2C_Master_Transmit+0x90>
 800114c:	2200      	movs	r2, #0
 800114e:	9600      	str	r6, [sp, #0]
 8001150:	463b      	mov	r3, r7
 8001152:	f04f 1101 	mov.w	r1, #65537	@ 0x10001
 8001156:	4620      	mov	r0, r4
 8001158:	f7ff fe2a 	bl	8000db0 <I2C_WaitOnFlagUntilTimeout>
 800115c:	6822      	ldr	r2, [r4, #0]
 800115e:	b140      	cbz	r0, 8001172 <HAL_I2C_Master_Transmit+0xc6>
 8001160:	6813      	ldr	r3, [r2, #0]
 8001162:	05db      	lsls	r3, r3, #23
 8001164:	d401      	bmi.n	800116a <HAL_I2C_Master_Transmit+0xbe>
 8001166:	2501      	movs	r5, #1
 8001168:	e7b0      	b.n	80010cc <HAL_I2C_Master_Transmit+0x20>
 800116a:	f44f 7300 	mov.w	r3, #512	@ 0x200
 800116e:	6423      	str	r3, [r4, #64]	@ 0x40
 8001170:	e7f9      	b.n	8001166 <HAL_I2C_Master_Transmit+0xba>
 8001172:	6923      	ldr	r3, [r4, #16]
 8001174:	f5b3 4f80 	cmp.w	r3, #16384	@ 0x4000
 8001178:	d121      	bne.n	80011be <HAL_I2C_Master_Transmit+0x112>
 800117a:	f005 05fe 	and.w	r5, r5, #254	@ 0xfe
 800117e:	6115      	str	r5, [r2, #16]
 8001180:	4935      	ldr	r1, [pc, #212]	@ (8001258 <HAL_I2C_Master_Transmit+0x1ac>)
 8001182:	4633      	mov	r3, r6
 8001184:	463a      	mov	r2, r7
 8001186:	4620      	mov	r0, r4
 8001188:	f7ff fe52 	bl	8000e30 <I2C_WaitOnMasterAddressFlagUntilTimeout>
 800118c:	4605      	mov	r5, r0
 800118e:	2800      	cmp	r0, #0
 8001190:	d1e9      	bne.n	8001166 <HAL_I2C_Master_Transmit+0xba>
 8001192:	6823      	ldr	r3, [r4, #0]
 8001194:	9003      	str	r0, [sp, #12]
 8001196:	695a      	ldr	r2, [r3, #20]
 8001198:	9203      	str	r2, [sp, #12]
 800119a:	699b      	ldr	r3, [r3, #24]
 800119c:	9303      	str	r3, [sp, #12]
 800119e:	9b03      	ldr	r3, [sp, #12]
 80011a0:	8d23      	ldrh	r3, [r4, #40]	@ 0x28
 80011a2:	b9f3      	cbnz	r3, 80011e2 <HAL_I2C_Master_Transmit+0x136>
 80011a4:	6821      	ldr	r1, [r4, #0]
 80011a6:	680a      	ldr	r2, [r1, #0]
 80011a8:	f442 7200 	orr.w	r2, r2, #512	@ 0x200
 80011ac:	600a      	str	r2, [r1, #0]
 80011ae:	2220      	movs	r2, #32
 80011b0:	f884 203d 	strb.w	r2, [r4, #61]	@ 0x3d
 80011b4:	f884 303c 	strb.w	r3, [r4, #60]	@ 0x3c
 80011b8:	f884 303e 	strb.w	r3, [r4, #62]	@ 0x3e
 80011bc:	e786      	b.n	80010cc <HAL_I2C_Master_Transmit+0x20>
 80011be:	11eb      	asrs	r3, r5, #7
 80011c0:	f003 0306 	and.w	r3, r3, #6
 80011c4:	f043 03f0 	orr.w	r3, r3, #240	@ 0xf0
 80011c8:	6113      	str	r3, [r2, #16]
 80011ca:	4924      	ldr	r1, [pc, #144]	@ (800125c <HAL_I2C_Master_Transmit+0x1b0>)
 80011cc:	4633      	mov	r3, r6
 80011ce:	463a      	mov	r2, r7
 80011d0:	4620      	mov	r0, r4
 80011d2:	f7ff fe2d 	bl	8000e30 <I2C_WaitOnMasterAddressFlagUntilTimeout>
 80011d6:	2800      	cmp	r0, #0
 80011d8:	d1c5      	bne.n	8001166 <HAL_I2C_Master_Transmit+0xba>
 80011da:	6823      	ldr	r3, [r4, #0]
 80011dc:	b2ed      	uxtb	r5, r5
 80011de:	611d      	str	r5, [r3, #16]
 80011e0:	e7ce      	b.n	8001180 <HAL_I2C_Master_Transmit+0xd4>
 80011e2:	4632      	mov	r2, r6
 80011e4:	4639      	mov	r1, r7
 80011e6:	4620      	mov	r0, r4
 80011e8:	f7ff fe64 	bl	8000eb4 <I2C_WaitOnTXEFlagUntilTimeout>
 80011ec:	b140      	cbz	r0, 8001200 <HAL_I2C_Master_Transmit+0x154>
 80011ee:	6c23      	ldr	r3, [r4, #64]	@ 0x40
 80011f0:	2b04      	cmp	r3, #4
 80011f2:	d1b8      	bne.n	8001166 <HAL_I2C_Master_Transmit+0xba>
 80011f4:	6822      	ldr	r2, [r4, #0]
 80011f6:	6813      	ldr	r3, [r2, #0]
 80011f8:	f443 7300 	orr.w	r3, r3, #512	@ 0x200
 80011fc:	6013      	str	r3, [r2, #0]
 80011fe:	e7b2      	b.n	8001166 <HAL_I2C_Master_Transmit+0xba>
 8001200:	6a63      	ldr	r3, [r4, #36]	@ 0x24
 8001202:	6820      	ldr	r0, [r4, #0]
 8001204:	461a      	mov	r2, r3
 8001206:	f812 1b01 	ldrb.w	r1, [r2], #1
 800120a:	6101      	str	r1, [r0, #16]
 800120c:	6262      	str	r2, [r4, #36]	@ 0x24
 800120e:	8d62      	ldrh	r2, [r4, #42]	@ 0x2a
 8001210:	3a01      	subs	r2, #1
 8001212:	b292      	uxth	r2, r2
 8001214:	8562      	strh	r2, [r4, #42]	@ 0x2a
 8001216:	8d22      	ldrh	r2, [r4, #40]	@ 0x28
 8001218:	f8d0 c014 	ldr.w	ip, [r0, #20]
 800121c:	1e51      	subs	r1, r2, #1
 800121e:	b289      	uxth	r1, r1
 8001220:	f01c 0f04 	tst.w	ip, #4
 8001224:	8521      	strh	r1, [r4, #40]	@ 0x28
 8001226:	d00a      	beq.n	800123e <HAL_I2C_Master_Transmit+0x192>
 8001228:	b149      	cbz	r1, 800123e <HAL_I2C_Master_Transmit+0x192>
 800122a:	7859      	ldrb	r1, [r3, #1]
 800122c:	6101      	str	r1, [r0, #16]
 800122e:	3302      	adds	r3, #2
 8001230:	6263      	str	r3, [r4, #36]	@ 0x24
 8001232:	8d63      	ldrh	r3, [r4, #42]	@ 0x2a
 8001234:	3b01      	subs	r3, #1
 8001236:	b29b      	uxth	r3, r3
 8001238:	3a02      	subs	r2, #2
 800123a:	8563      	strh	r3, [r4, #42]	@ 0x2a
 800123c:	8522      	strh	r2, [r4, #40]	@ 0x28
 800123e:	4632      	mov	r2, r6
 8001240:	4639      	mov	r1, r7
 8001242:	4620      	mov	r0, r4
 8001244:	f7ff fe60 	bl	8000f08 <I2C_WaitOnBTFFlagUntilTimeout>
 8001248:	2800      	cmp	r0, #0
 800124a:	d0a9      	beq.n	80011a0 <HAL_I2C_Master_Transmit+0xf4>
 800124c:	e7cf      	b.n	80011ee <HAL_I2C_Master_Transmit+0x142>
 800124e:	bf00      	nop
 8001250:	00100002 	.word	0x00100002
 8001254:	ffff0000 	.word	0xffff0000
 8001258:	00010002 	.word	0x00010002
 800125c:	00010008 	.word	0x00010008

08001260 <HAL_RCC_OscConfig>:
 8001260:	e92d 41f3 	stmdb	sp!, {r0, r1, r4, r5, r6, r7, r8, lr}
 8001264:	4604      	mov	r4, r0
 8001266:	b340      	cbz	r0, 80012ba <HAL_RCC_OscConfig+0x5a>
 8001268:	6803      	ldr	r3, [r0, #0]
 800126a:	07de      	lsls	r6, r3, #31
 800126c:	d410      	bmi.n	8001290 <HAL_RCC_OscConfig+0x30>
 800126e:	6823      	ldr	r3, [r4, #0]
 8001270:	079d      	lsls	r5, r3, #30
 8001272:	d45b      	bmi.n	800132c <HAL_RCC_OscConfig+0xcc>
 8001274:	6823      	ldr	r3, [r4, #0]
 8001276:	0719      	lsls	r1, r3, #28
 8001278:	f100 809d 	bmi.w	80013b6 <HAL_RCC_OscConfig+0x156>
 800127c:	6823      	ldr	r3, [r4, #0]
 800127e:	075a      	lsls	r2, r3, #29
 8001280:	f100 80bd 	bmi.w	80013fe <HAL_RCC_OscConfig+0x19e>
 8001284:	69a3      	ldr	r3, [r4, #24]
 8001286:	2b00      	cmp	r3, #0
 8001288:	f040 8124 	bne.w	80014d4 <HAL_RCC_OscConfig+0x274>
 800128c:	2000      	movs	r0, #0
 800128e:	e02c      	b.n	80012ea <HAL_RCC_OscConfig+0x8a>
 8001290:	4b8d      	ldr	r3, [pc, #564]	@ (80014c8 <HAL_RCC_OscConfig+0x268>)
 8001292:	689a      	ldr	r2, [r3, #8]
 8001294:	f002 020c 	and.w	r2, r2, #12
 8001298:	2a04      	cmp	r2, #4
 800129a:	d007      	beq.n	80012ac <HAL_RCC_OscConfig+0x4c>
 800129c:	689a      	ldr	r2, [r3, #8]
 800129e:	f002 020c 	and.w	r2, r2, #12
 80012a2:	2a08      	cmp	r2, #8
 80012a4:	d10b      	bne.n	80012be <HAL_RCC_OscConfig+0x5e>
 80012a6:	685b      	ldr	r3, [r3, #4]
 80012a8:	0259      	lsls	r1, r3, #9
 80012aa:	d508      	bpl.n	80012be <HAL_RCC_OscConfig+0x5e>
 80012ac:	4b86      	ldr	r3, [pc, #536]	@ (80014c8 <HAL_RCC_OscConfig+0x268>)
 80012ae:	681b      	ldr	r3, [r3, #0]
 80012b0:	039a      	lsls	r2, r3, #14
 80012b2:	d5dc      	bpl.n	800126e <HAL_RCC_OscConfig+0xe>
 80012b4:	6863      	ldr	r3, [r4, #4]
 80012b6:	2b00      	cmp	r3, #0
 80012b8:	d1d9      	bne.n	800126e <HAL_RCC_OscConfig+0xe>
 80012ba:	2001      	movs	r0, #1
 80012bc:	e015      	b.n	80012ea <HAL_RCC_OscConfig+0x8a>
 80012be:	6863      	ldr	r3, [r4, #4]
 80012c0:	4d81      	ldr	r5, [pc, #516]	@ (80014c8 <HAL_RCC_OscConfig+0x268>)
 80012c2:	f5b3 3f80 	cmp.w	r3, #65536	@ 0x10000
 80012c6:	d113      	bne.n	80012f0 <HAL_RCC_OscConfig+0x90>
 80012c8:	682b      	ldr	r3, [r5, #0]
 80012ca:	f443 3380 	orr.w	r3, r3, #65536	@ 0x10000
 80012ce:	602b      	str	r3, [r5, #0]
 80012d0:	f7ff fc1c 	bl	8000b0c <HAL_GetTick>
 80012d4:	4e7c      	ldr	r6, [pc, #496]	@ (80014c8 <HAL_RCC_OscConfig+0x268>)
 80012d6:	4605      	mov	r5, r0
 80012d8:	6833      	ldr	r3, [r6, #0]
 80012da:	039b      	lsls	r3, r3, #14
 80012dc:	d4c7      	bmi.n	800126e <HAL_RCC_OscConfig+0xe>
 80012de:	f7ff fc15 	bl	8000b0c <HAL_GetTick>
 80012e2:	1b40      	subs	r0, r0, r5
 80012e4:	2864      	cmp	r0, #100	@ 0x64
 80012e6:	d9f7      	bls.n	80012d8 <HAL_RCC_OscConfig+0x78>
 80012e8:	2003      	movs	r0, #3
 80012ea:	b002      	add	sp, #8
 80012ec:	e8bd 81f0 	ldmia.w	sp!, {r4, r5, r6, r7, r8, pc}
 80012f0:	f5b3 2fa0 	cmp.w	r3, #327680	@ 0x50000
 80012f4:	d104      	bne.n	8001300 <HAL_RCC_OscConfig+0xa0>
 80012f6:	682b      	ldr	r3, [r5, #0]
 80012f8:	f443 2380 	orr.w	r3, r3, #262144	@ 0x40000
 80012fc:	602b      	str	r3, [r5, #0]
 80012fe:	e7e3      	b.n	80012c8 <HAL_RCC_OscConfig+0x68>
 8001300:	682a      	ldr	r2, [r5, #0]
 8001302:	f422 3280 	bic.w	r2, r2, #65536	@ 0x10000
 8001306:	602a      	str	r2, [r5, #0]
 8001308:	682a      	ldr	r2, [r5, #0]
 800130a:	f422 2280 	bic.w	r2, r2, #262144	@ 0x40000
 800130e:	602a      	str	r2, [r5, #0]
 8001310:	2b00      	cmp	r3, #0
 8001312:	d1dd      	bne.n	80012d0 <HAL_RCC_OscConfig+0x70>
 8001314:	f7ff fbfa 	bl	8000b0c <HAL_GetTick>
 8001318:	4606      	mov	r6, r0
 800131a:	682b      	ldr	r3, [r5, #0]
 800131c:	039f      	lsls	r7, r3, #14
 800131e:	d5a6      	bpl.n	800126e <HAL_RCC_OscConfig+0xe>
 8001320:	f7ff fbf4 	bl	8000b0c <HAL_GetTick>
 8001324:	1b80      	subs	r0, r0, r6
 8001326:	2864      	cmp	r0, #100	@ 0x64
 8001328:	d9f7      	bls.n	800131a <HAL_RCC_OscConfig+0xba>
 800132a:	e7dd      	b.n	80012e8 <HAL_RCC_OscConfig+0x88>
 800132c:	4b66      	ldr	r3, [pc, #408]	@ (80014c8 <HAL_RCC_OscConfig+0x268>)
 800132e:	689a      	ldr	r2, [r3, #8]
 8001330:	f012 0f0c 	tst.w	r2, #12
 8001334:	d007      	beq.n	8001346 <HAL_RCC_OscConfig+0xe6>
 8001336:	689a      	ldr	r2, [r3, #8]
 8001338:	f002 020c 	and.w	r2, r2, #12
 800133c:	2a08      	cmp	r2, #8
 800133e:	d111      	bne.n	8001364 <HAL_RCC_OscConfig+0x104>
 8001340:	685b      	ldr	r3, [r3, #4]
 8001342:	025d      	lsls	r5, r3, #9
 8001344:	d40e      	bmi.n	8001364 <HAL_RCC_OscConfig+0x104>
 8001346:	4a60      	ldr	r2, [pc, #384]	@ (80014c8 <HAL_RCC_OscConfig+0x268>)
 8001348:	6813      	ldr	r3, [r2, #0]
 800134a:	0799      	lsls	r1, r3, #30
 800134c:	d502      	bpl.n	8001354 <HAL_RCC_OscConfig+0xf4>
 800134e:	68e3      	ldr	r3, [r4, #12]
 8001350:	2b01      	cmp	r3, #1
 8001352:	d1b2      	bne.n	80012ba <HAL_RCC_OscConfig+0x5a>
 8001354:	6813      	ldr	r3, [r2, #0]
 8001356:	6921      	ldr	r1, [r4, #16]
 8001358:	f023 03f8 	bic.w	r3, r3, #248	@ 0xf8
 800135c:	ea43 03c1 	orr.w	r3, r3, r1, lsl #3
 8001360:	6013      	str	r3, [r2, #0]
 8001362:	e787      	b.n	8001274 <HAL_RCC_OscConfig+0x14>
 8001364:	68e2      	ldr	r2, [r4, #12]
 8001366:	4b59      	ldr	r3, [pc, #356]	@ (80014cc <HAL_RCC_OscConfig+0x26c>)
 8001368:	b1b2      	cbz	r2, 8001398 <HAL_RCC_OscConfig+0x138>
 800136a:	2201      	movs	r2, #1
 800136c:	601a      	str	r2, [r3, #0]
 800136e:	f7ff fbcd 	bl	8000b0c <HAL_GetTick>
 8001372:	4d55      	ldr	r5, [pc, #340]	@ (80014c8 <HAL_RCC_OscConfig+0x268>)
 8001374:	4606      	mov	r6, r0
 8001376:	682b      	ldr	r3, [r5, #0]
 8001378:	079b      	lsls	r3, r3, #30
 800137a:	d507      	bpl.n	800138c <HAL_RCC_OscConfig+0x12c>
 800137c:	682b      	ldr	r3, [r5, #0]
 800137e:	6922      	ldr	r2, [r4, #16]
 8001380:	f023 03f8 	bic.w	r3, r3, #248	@ 0xf8
 8001384:	ea43 03c2 	orr.w	r3, r3, r2, lsl #3
 8001388:	602b      	str	r3, [r5, #0]
 800138a:	e773      	b.n	8001274 <HAL_RCC_OscConfig+0x14>
 800138c:	f7ff fbbe 	bl	8000b0c <HAL_GetTick>
 8001390:	1b80      	subs	r0, r0, r6
 8001392:	2802      	cmp	r0, #2
 8001394:	d9ef      	bls.n	8001376 <HAL_RCC_OscConfig+0x116>
 8001396:	e7a7      	b.n	80012e8 <HAL_RCC_OscConfig+0x88>
 8001398:	601a      	str	r2, [r3, #0]
 800139a:	f7ff fbb7 	bl	8000b0c <HAL_GetTick>
 800139e:	4e4a      	ldr	r6, [pc, #296]	@ (80014c8 <HAL_RCC_OscConfig+0x268>)
 80013a0:	4605      	mov	r5, r0
 80013a2:	6833      	ldr	r3, [r6, #0]
 80013a4:	079f      	lsls	r7, r3, #30
 80013a6:	f57f af65 	bpl.w	8001274 <HAL_RCC_OscConfig+0x14>
 80013aa:	f7ff fbaf 	bl	8000b0c <HAL_GetTick>
 80013ae:	1b40      	subs	r0, r0, r5
 80013b0:	2802      	cmp	r0, #2
 80013b2:	d9f6      	bls.n	80013a2 <HAL_RCC_OscConfig+0x142>
 80013b4:	e798      	b.n	80012e8 <HAL_RCC_OscConfig+0x88>
 80013b6:	6962      	ldr	r2, [r4, #20]
 80013b8:	4b44      	ldr	r3, [pc, #272]	@ (80014cc <HAL_RCC_OscConfig+0x26c>)
 80013ba:	b182      	cbz	r2, 80013de <HAL_RCC_OscConfig+0x17e>
 80013bc:	2201      	movs	r2, #1
 80013be:	f8c3 2e80 	str.w	r2, [r3, #3712]	@ 0xe80
 80013c2:	f7ff fba3 	bl	8000b0c <HAL_GetTick>
 80013c6:	4e40      	ldr	r6, [pc, #256]	@ (80014c8 <HAL_RCC_OscConfig+0x268>)
 80013c8:	4605      	mov	r5, r0
 80013ca:	6f73      	ldr	r3, [r6, #116]	@ 0x74
 80013cc:	079b      	lsls	r3, r3, #30
 80013ce:	f53f af55 	bmi.w	800127c <HAL_RCC_OscConfig+0x1c>
 80013d2:	f7ff fb9b 	bl	8000b0c <HAL_GetTick>
 80013d6:	1b40      	subs	r0, r0, r5
 80013d8:	2802      	cmp	r0, #2
 80013da:	d9f6      	bls.n	80013ca <HAL_RCC_OscConfig+0x16a>
 80013dc:	e784      	b.n	80012e8 <HAL_RCC_OscConfig+0x88>
 80013de:	f8c3 2e80 	str.w	r2, [r3, #3712]	@ 0xe80
 80013e2:	f7ff fb93 	bl	8000b0c <HAL_GetTick>
 80013e6:	4e38      	ldr	r6, [pc, #224]	@ (80014c8 <HAL_RCC_OscConfig+0x268>)
 80013e8:	4605      	mov	r5, r0
 80013ea:	6f73      	ldr	r3, [r6, #116]	@ 0x74
 80013ec:	079f      	lsls	r7, r3, #30
 80013ee:	f57f af45 	bpl.w	800127c <HAL_RCC_OscConfig+0x1c>
 80013f2:	f7ff fb8b 	bl	8000b0c <HAL_GetTick>
 80013f6:	1b40      	subs	r0, r0, r5
 80013f8:	2802      	cmp	r0, #2
 80013fa:	d9f6      	bls.n	80013ea <HAL_RCC_OscConfig+0x18a>
 80013fc:	e774      	b.n	80012e8 <HAL_RCC_OscConfig+0x88>
 80013fe:	4b32      	ldr	r3, [pc, #200]	@ (80014c8 <HAL_RCC_OscConfig+0x268>)
 8001400:	6c1a      	ldr	r2, [r3, #64]	@ 0x40
 8001402:	f012 5280 	ands.w	r2, r2, #268435456	@ 0x10000000
 8001406:	d128      	bne.n	800145a <HAL_RCC_OscConfig+0x1fa>
 8001408:	9201      	str	r2, [sp, #4]
 800140a:	6c1a      	ldr	r2, [r3, #64]	@ 0x40
 800140c:	f042 5280 	orr.w	r2, r2, #268435456	@ 0x10000000
 8001410:	641a      	str	r2, [r3, #64]	@ 0x40
 8001412:	6c1b      	ldr	r3, [r3, #64]	@ 0x40
 8001414:	f003 5380 	and.w	r3, r3, #268435456	@ 0x10000000
 8001418:	9301      	str	r3, [sp, #4]
 800141a:	9b01      	ldr	r3, [sp, #4]
 800141c:	2701      	movs	r7, #1
 800141e:	4d2c      	ldr	r5, [pc, #176]	@ (80014d0 <HAL_RCC_OscConfig+0x270>)
 8001420:	682b      	ldr	r3, [r5, #0]
 8001422:	05d8      	lsls	r0, r3, #23
 8001424:	d51b      	bpl.n	800145e <HAL_RCC_OscConfig+0x1fe>
 8001426:	68a3      	ldr	r3, [r4, #8]
 8001428:	4d27      	ldr	r5, [pc, #156]	@ (80014c8 <HAL_RCC_OscConfig+0x268>)
 800142a:	2b01      	cmp	r3, #1
 800142c:	d127      	bne.n	800147e <HAL_RCC_OscConfig+0x21e>
 800142e:	6f2b      	ldr	r3, [r5, #112]	@ 0x70
 8001430:	f043 0301 	orr.w	r3, r3, #1
 8001434:	672b      	str	r3, [r5, #112]	@ 0x70
 8001436:	f7ff fb69 	bl	8000b0c <HAL_GetTick>
 800143a:	4e23      	ldr	r6, [pc, #140]	@ (80014c8 <HAL_RCC_OscConfig+0x268>)
 800143c:	4605      	mov	r5, r0
 800143e:	f241 3888 	movw	r8, #5000	@ 0x1388
 8001442:	6f33      	ldr	r3, [r6, #112]	@ 0x70
 8001444:	079a      	lsls	r2, r3, #30
 8001446:	d539      	bpl.n	80014bc <HAL_RCC_OscConfig+0x25c>
 8001448:	2f00      	cmp	r7, #0
 800144a:	f43f af1b 	beq.w	8001284 <HAL_RCC_OscConfig+0x24>
 800144e:	4a1e      	ldr	r2, [pc, #120]	@ (80014c8 <HAL_RCC_OscConfig+0x268>)
 8001450:	6c13      	ldr	r3, [r2, #64]	@ 0x40
 8001452:	f023 5380 	bic.w	r3, r3, #268435456	@ 0x10000000
 8001456:	6413      	str	r3, [r2, #64]	@ 0x40
 8001458:	e714      	b.n	8001284 <HAL_RCC_OscConfig+0x24>
 800145a:	2700      	movs	r7, #0
 800145c:	e7df      	b.n	800141e <HAL_RCC_OscConfig+0x1be>
 800145e:	682b      	ldr	r3, [r5, #0]
 8001460:	f443 7380 	orr.w	r3, r3, #256	@ 0x100
 8001464:	602b      	str	r3, [r5, #0]
 8001466:	f7ff fb51 	bl	8000b0c <HAL_GetTick>
 800146a:	4606      	mov	r6, r0
 800146c:	682b      	ldr	r3, [r5, #0]
 800146e:	05d9      	lsls	r1, r3, #23
 8001470:	d4d9      	bmi.n	8001426 <HAL_RCC_OscConfig+0x1c6>
 8001472:	f7ff fb4b 	bl	8000b0c <HAL_GetTick>
 8001476:	1b80      	subs	r0, r0, r6
 8001478:	2802      	cmp	r0, #2
 800147a:	d9f7      	bls.n	800146c <HAL_RCC_OscConfig+0x20c>
 800147c:	e734      	b.n	80012e8 <HAL_RCC_OscConfig+0x88>
 800147e:	2b05      	cmp	r3, #5
 8001480:	d104      	bne.n	800148c <HAL_RCC_OscConfig+0x22c>
 8001482:	6f2b      	ldr	r3, [r5, #112]	@ 0x70
 8001484:	f043 0304 	orr.w	r3, r3, #4
 8001488:	672b      	str	r3, [r5, #112]	@ 0x70
 800148a:	e7d0      	b.n	800142e <HAL_RCC_OscConfig+0x1ce>
 800148c:	6f2a      	ldr	r2, [r5, #112]	@ 0x70
 800148e:	f022 0201 	bic.w	r2, r2, #1
 8001492:	672a      	str	r2, [r5, #112]	@ 0x70
 8001494:	6f2a      	ldr	r2, [r5, #112]	@ 0x70
 8001496:	f022 0204 	bic.w	r2, r2, #4
 800149a:	672a      	str	r2, [r5, #112]	@ 0x70
 800149c:	2b00      	cmp	r3, #0
 800149e:	d1ca      	bne.n	8001436 <HAL_RCC_OscConfig+0x1d6>
 80014a0:	f7ff fb34 	bl	8000b0c <HAL_GetTick>
 80014a4:	f241 3888 	movw	r8, #5000	@ 0x1388
 80014a8:	4606      	mov	r6, r0
 80014aa:	6f2b      	ldr	r3, [r5, #112]	@ 0x70
 80014ac:	079b      	lsls	r3, r3, #30
 80014ae:	d5cb      	bpl.n	8001448 <HAL_RCC_OscConfig+0x1e8>
 80014b0:	f7ff fb2c 	bl	8000b0c <HAL_GetTick>
 80014b4:	1b80      	subs	r0, r0, r6
 80014b6:	4540      	cmp	r0, r8
 80014b8:	d9f7      	bls.n	80014aa <HAL_RCC_OscConfig+0x24a>
 80014ba:	e715      	b.n	80012e8 <HAL_RCC_OscConfig+0x88>
 80014bc:	f7ff fb26 	bl	8000b0c <HAL_GetTick>
 80014c0:	1b40      	subs	r0, r0, r5
 80014c2:	4540      	cmp	r0, r8
 80014c4:	d9bd      	bls.n	8001442 <HAL_RCC_OscConfig+0x1e2>
 80014c6:	e70f      	b.n	80012e8 <HAL_RCC_OscConfig+0x88>
 80014c8:	40023800 	.word	0x40023800
 80014cc:	42470000 	.word	0x42470000
 80014d0:	40007000 	.word	0x40007000
 80014d4:	4d37      	ldr	r5, [pc, #220]	@ (80015b4 <HAL_RCC_OscConfig+0x354>)
 80014d6:	68aa      	ldr	r2, [r5, #8]
 80014d8:	f002 020c 	and.w	r2, r2, #12
 80014dc:	2a08      	cmp	r2, #8
 80014de:	d03e      	beq.n	800155e <HAL_RCC_OscConfig+0x2fe>
 80014e0:	2b02      	cmp	r3, #2
 80014e2:	4b35      	ldr	r3, [pc, #212]	@ (80015b8 <HAL_RCC_OscConfig+0x358>)
 80014e4:	f04f 0200 	mov.w	r2, #0
 80014e8:	661a      	str	r2, [r3, #96]	@ 0x60
 80014ea:	d12b      	bne.n	8001544 <HAL_RCC_OscConfig+0x2e4>
 80014ec:	f7ff fb0e 	bl	8000b0c <HAL_GetTick>
 80014f0:	4606      	mov	r6, r0
 80014f2:	682b      	ldr	r3, [r5, #0]
 80014f4:	0199      	lsls	r1, r3, #6
 80014f6:	d41f      	bmi.n	8001538 <HAL_RCC_OscConfig+0x2d8>
 80014f8:	e9d4 3207 	ldrd	r3, r2, [r4, #28]
 80014fc:	4313      	orrs	r3, r2
 80014fe:	6a62      	ldr	r2, [r4, #36]	@ 0x24
 8001500:	ea43 1382 	orr.w	r3, r3, r2, lsl #6
 8001504:	6ae2      	ldr	r2, [r4, #44]	@ 0x2c
 8001506:	ea43 6302 	orr.w	r3, r3, r2, lsl #24
 800150a:	6aa2      	ldr	r2, [r4, #40]	@ 0x28
 800150c:	0852      	lsrs	r2, r2, #1
 800150e:	3a01      	subs	r2, #1
 8001510:	ea43 4302 	orr.w	r3, r3, r2, lsl #16
 8001514:	606b      	str	r3, [r5, #4]
 8001516:	4b28      	ldr	r3, [pc, #160]	@ (80015b8 <HAL_RCC_OscConfig+0x358>)
 8001518:	4d26      	ldr	r5, [pc, #152]	@ (80015b4 <HAL_RCC_OscConfig+0x354>)
 800151a:	2201      	movs	r2, #1
 800151c:	661a      	str	r2, [r3, #96]	@ 0x60
 800151e:	f7ff faf5 	bl	8000b0c <HAL_GetTick>
 8001522:	4604      	mov	r4, r0
 8001524:	682b      	ldr	r3, [r5, #0]
 8001526:	019a      	lsls	r2, r3, #6
 8001528:	f53f aeb0 	bmi.w	800128c <HAL_RCC_OscConfig+0x2c>
 800152c:	f7ff faee 	bl	8000b0c <HAL_GetTick>
 8001530:	1b00      	subs	r0, r0, r4
 8001532:	2802      	cmp	r0, #2
 8001534:	d9f6      	bls.n	8001524 <HAL_RCC_OscConfig+0x2c4>
 8001536:	e6d7      	b.n	80012e8 <HAL_RCC_OscConfig+0x88>
 8001538:	f7ff fae8 	bl	8000b0c <HAL_GetTick>
 800153c:	1b80      	subs	r0, r0, r6
 800153e:	2802      	cmp	r0, #2
 8001540:	d9d7      	bls.n	80014f2 <HAL_RCC_OscConfig+0x292>
 8001542:	e6d1      	b.n	80012e8 <HAL_RCC_OscConfig+0x88>
 8001544:	f7ff fae2 	bl	8000b0c <HAL_GetTick>
 8001548:	4604      	mov	r4, r0
 800154a:	682b      	ldr	r3, [r5, #0]
 800154c:	019b      	lsls	r3, r3, #6
 800154e:	f57f ae9d 	bpl.w	800128c <HAL_RCC_OscConfig+0x2c>
 8001552:	f7ff fadb 	bl	8000b0c <HAL_GetTick>
 8001556:	1b00      	subs	r0, r0, r4
 8001558:	2802      	cmp	r0, #2
 800155a:	d9f6      	bls.n	800154a <HAL_RCC_OscConfig+0x2ea>
 800155c:	e6c4      	b.n	80012e8 <HAL_RCC_OscConfig+0x88>
 800155e:	2b01      	cmp	r3, #1
 8001560:	f43f aeab 	beq.w	80012ba <HAL_RCC_OscConfig+0x5a>
 8001564:	686b      	ldr	r3, [r5, #4]
 8001566:	69e2      	ldr	r2, [r4, #28]
 8001568:	f403 0180 	and.w	r1, r3, #4194304	@ 0x400000
 800156c:	4291      	cmp	r1, r2
 800156e:	f47f aea4 	bne.w	80012ba <HAL_RCC_OscConfig+0x5a>
 8001572:	6a21      	ldr	r1, [r4, #32]
 8001574:	f003 023f 	and.w	r2, r3, #63	@ 0x3f
 8001578:	428a      	cmp	r2, r1
 800157a:	f47f ae9e 	bne.w	80012ba <HAL_RCC_OscConfig+0x5a>
 800157e:	6a61      	ldr	r1, [r4, #36]	@ 0x24
 8001580:	f647 72c0 	movw	r2, #32704	@ 0x7fc0
 8001584:	401a      	ands	r2, r3
 8001586:	ebb2 1f81 	cmp.w	r2, r1, lsl #6
 800158a:	f47f ae96 	bne.w	80012ba <HAL_RCC_OscConfig+0x5a>
 800158e:	6aa2      	ldr	r2, [r4, #40]	@ 0x28
 8001590:	0852      	lsrs	r2, r2, #1
 8001592:	f403 3140 	and.w	r1, r3, #196608	@ 0x30000
 8001596:	3a01      	subs	r2, #1
 8001598:	ebb1 4f02 	cmp.w	r1, r2, lsl #16
 800159c:	f47f ae8d 	bne.w	80012ba <HAL_RCC_OscConfig+0x5a>
 80015a0:	6ae2      	ldr	r2, [r4, #44]	@ 0x2c
 80015a2:	f003 6370 	and.w	r3, r3, #251658240	@ 0xf000000
 80015a6:	ebb3 6f02 	cmp.w	r3, r2, lsl #24
 80015aa:	bf14      	ite	ne
 80015ac:	2001      	movne	r0, #1
 80015ae:	2000      	moveq	r0, #0
 80015b0:	e69b      	b.n	80012ea <HAL_RCC_OscConfig+0x8a>
 80015b2:	bf00      	nop
 80015b4:	40023800 	.word	0x40023800
 80015b8:	42470000 	.word	0x42470000

080015bc <HAL_RCC_GetSysClockFreq>:
 80015bc:	4913      	ldr	r1, [pc, #76]	@ (800160c <HAL_RCC_GetSysClockFreq+0x50>)
 80015be:	b508      	push	{r3, lr}
 80015c0:	688b      	ldr	r3, [r1, #8]
 80015c2:	f003 030c 	and.w	r3, r3, #12
 80015c6:	2b04      	cmp	r3, #4
 80015c8:	d01c      	beq.n	8001604 <HAL_RCC_GetSysClockFreq+0x48>
 80015ca:	2b08      	cmp	r3, #8
 80015cc:	d11c      	bne.n	8001608 <HAL_RCC_GetSysClockFreq+0x4c>
 80015ce:	684a      	ldr	r2, [r1, #4]
 80015d0:	684b      	ldr	r3, [r1, #4]
 80015d2:	6849      	ldr	r1, [r1, #4]
 80015d4:	f413 0380 	ands.w	r3, r3, #4194304	@ 0x400000
 80015d8:	bf14      	ite	ne
 80015da:	480d      	ldrne	r0, [pc, #52]	@ (8001610 <HAL_RCC_GetSysClockFreq+0x54>)
 80015dc:	480d      	ldreq	r0, [pc, #52]	@ (8001614 <HAL_RCC_GetSysClockFreq+0x58>)
 80015de:	f3c1 1188 	ubfx	r1, r1, #6, #9
 80015e2:	bf18      	it	ne
 80015e4:	2300      	movne	r3, #0
 80015e6:	f002 023f 	and.w	r2, r2, #63	@ 0x3f
 80015ea:	fba1 0100 	umull	r0, r1, r1, r0
 80015ee:	f7fe fdf9 	bl	80001e4 <__aeabi_uldivmod>
 80015f2:	4b06      	ldr	r3, [pc, #24]	@ (800160c <HAL_RCC_GetSysClockFreq+0x50>)
 80015f4:	685b      	ldr	r3, [r3, #4]
 80015f6:	f3c3 4301 	ubfx	r3, r3, #16, #2
 80015fa:	3301      	adds	r3, #1
 80015fc:	005b      	lsls	r3, r3, #1
 80015fe:	fbb0 f0f3 	udiv	r0, r0, r3
 8001602:	bd08      	pop	{r3, pc}
 8001604:	4802      	ldr	r0, [pc, #8]	@ (8001610 <HAL_RCC_GetSysClockFreq+0x54>)
 8001606:	e7fc      	b.n	8001602 <HAL_RCC_GetSysClockFreq+0x46>
 8001608:	4802      	ldr	r0, [pc, #8]	@ (8001614 <HAL_RCC_GetSysClockFreq+0x58>)
 800160a:	e7fa      	b.n	8001602 <HAL_RCC_GetSysClockFreq+0x46>
 800160c:	40023800 	.word	0x40023800
 8001610:	017d7840 	.word	0x017d7840
 8001614:	00f42400 	.word	0x00f42400

08001618 <HAL_RCC_ClockConfig>:
 8001618:	e92d 41f0 	stmdb	sp!, {r4, r5, r6, r7, r8, lr}
 800161c:	460d      	mov	r5, r1
 800161e:	4604      	mov	r4, r0
 8001620:	b910      	cbnz	r0, 8001628 <HAL_RCC_ClockConfig+0x10>
 8001622:	2001      	movs	r0, #1
 8001624:	e8bd 81f0 	ldmia.w	sp!, {r4, r5, r6, r7, r8, pc}
 8001628:	4b43      	ldr	r3, [pc, #268]	@ (8001738 <HAL_RCC_ClockConfig+0x120>)
 800162a:	681a      	ldr	r2, [r3, #0]
 800162c:	f002 0207 	and.w	r2, r2, #7
 8001630:	428a      	cmp	r2, r1
 8001632:	d328      	bcc.n	8001686 <HAL_RCC_ClockConfig+0x6e>
 8001634:	6821      	ldr	r1, [r4, #0]
 8001636:	078f      	lsls	r7, r1, #30
 8001638:	d42d      	bmi.n	8001696 <HAL_RCC_ClockConfig+0x7e>
 800163a:	07c8      	lsls	r0, r1, #31
 800163c:	d440      	bmi.n	80016c0 <HAL_RCC_ClockConfig+0xa8>
 800163e:	4b3e      	ldr	r3, [pc, #248]	@ (8001738 <HAL_RCC_ClockConfig+0x120>)
 8001640:	681a      	ldr	r2, [r3, #0]
 8001642:	f002 0207 	and.w	r2, r2, #7
 8001646:	42aa      	cmp	r2, r5
 8001648:	d865      	bhi.n	8001716 <HAL_RCC_ClockConfig+0xfe>
 800164a:	6822      	ldr	r2, [r4, #0]
 800164c:	0751      	lsls	r1, r2, #29
 800164e:	d46b      	bmi.n	8001728 <HAL_RCC_ClockConfig+0x110>
 8001650:	0713      	lsls	r3, r2, #28
 8001652:	d507      	bpl.n	8001664 <HAL_RCC_ClockConfig+0x4c>
 8001654:	4a39      	ldr	r2, [pc, #228]	@ (800173c <HAL_RCC_ClockConfig+0x124>)
 8001656:	6921      	ldr	r1, [r4, #16]
 8001658:	6893      	ldr	r3, [r2, #8]
 800165a:	f423 4360 	bic.w	r3, r3, #57344	@ 0xe000
 800165e:	ea43 03c1 	orr.w	r3, r3, r1, lsl #3
 8001662:	6093      	str	r3, [r2, #8]
 8001664:	f7ff ffaa 	bl	80015bc <HAL_RCC_GetSysClockFreq>
 8001668:	4b34      	ldr	r3, [pc, #208]	@ (800173c <HAL_RCC_ClockConfig+0x124>)
 800166a:	4a35      	ldr	r2, [pc, #212]	@ (8001740 <HAL_RCC_ClockConfig+0x128>)
 800166c:	689b      	ldr	r3, [r3, #8]
 800166e:	f3c3 1303 	ubfx	r3, r3, #4, #4
 8001672:	5cd3      	ldrb	r3, [r2, r3]
 8001674:	40d8      	lsrs	r0, r3
 8001676:	4b33      	ldr	r3, [pc, #204]	@ (8001744 <HAL_RCC_ClockConfig+0x12c>)
 8001678:	6018      	str	r0, [r3, #0]
 800167a:	4b33      	ldr	r3, [pc, #204]	@ (8001748 <HAL_RCC_ClockConfig+0x130>)
 800167c:	6818      	ldr	r0, [r3, #0]
 800167e:	f7ff f9fb 	bl	8000a78 <HAL_InitTick>
 8001682:	2000      	movs	r0, #0
 8001684:	e7ce      	b.n	8001624 <HAL_RCC_ClockConfig+0xc>
 8001686:	b2ca      	uxtb	r2, r1
 8001688:	701a      	strb	r2, [r3, #0]
 800168a:	681b      	ldr	r3, [r3, #0]
 800168c:	f003 0307 	and.w	r3, r3, #7
 8001690:	428b      	cmp	r3, r1
 8001692:	d1c6      	bne.n	8001622 <HAL_RCC_ClockConfig+0xa>
 8001694:	e7ce      	b.n	8001634 <HAL_RCC_ClockConfig+0x1c>
 8001696:	4b29      	ldr	r3, [pc, #164]	@ (800173c <HAL_RCC_ClockConfig+0x124>)
 8001698:	f011 0f04 	tst.w	r1, #4
 800169c:	bf1e      	ittt	ne
 800169e:	689a      	ldrne	r2, [r3, #8]
 80016a0:	f442 52e0 	orrne.w	r2, r2, #7168	@ 0x1c00
 80016a4:	609a      	strne	r2, [r3, #8]
 80016a6:	070e      	lsls	r6, r1, #28
 80016a8:	bf42      	ittt	mi
 80016aa:	689a      	ldrmi	r2, [r3, #8]
 80016ac:	f442 4260 	orrmi.w	r2, r2, #57344	@ 0xe000
 80016b0:	609a      	strmi	r2, [r3, #8]
 80016b2:	689a      	ldr	r2, [r3, #8]
 80016b4:	68a0      	ldr	r0, [r4, #8]
 80016b6:	f022 02f0 	bic.w	r2, r2, #240	@ 0xf0
 80016ba:	4302      	orrs	r2, r0
 80016bc:	609a      	str	r2, [r3, #8]
 80016be:	e7bc      	b.n	800163a <HAL_RCC_ClockConfig+0x22>
 80016c0:	6862      	ldr	r2, [r4, #4]
 80016c2:	4b1e      	ldr	r3, [pc, #120]	@ (800173c <HAL_RCC_ClockConfig+0x124>)
 80016c4:	2a01      	cmp	r2, #1
 80016c6:	d11c      	bne.n	8001702 <HAL_RCC_ClockConfig+0xea>
 80016c8:	681b      	ldr	r3, [r3, #0]
 80016ca:	f413 3f00 	tst.w	r3, #131072	@ 0x20000
 80016ce:	d0a8      	beq.n	8001622 <HAL_RCC_ClockConfig+0xa>
 80016d0:	4e1a      	ldr	r6, [pc, #104]	@ (800173c <HAL_RCC_ClockConfig+0x124>)
 80016d2:	68b3      	ldr	r3, [r6, #8]
 80016d4:	f023 0303 	bic.w	r3, r3, #3
 80016d8:	4313      	orrs	r3, r2
 80016da:	60b3      	str	r3, [r6, #8]
 80016dc:	f7ff fa16 	bl	8000b0c <HAL_GetTick>
 80016e0:	f241 3888 	movw	r8, #5000	@ 0x1388
 80016e4:	4607      	mov	r7, r0
 80016e6:	68b3      	ldr	r3, [r6, #8]
 80016e8:	6862      	ldr	r2, [r4, #4]
 80016ea:	f003 030c 	and.w	r3, r3, #12
 80016ee:	ebb3 0f82 	cmp.w	r3, r2, lsl #2
 80016f2:	d0a4      	beq.n	800163e <HAL_RCC_ClockConfig+0x26>
 80016f4:	f7ff fa0a 	bl	8000b0c <HAL_GetTick>
 80016f8:	1bc0      	subs	r0, r0, r7
 80016fa:	4540      	cmp	r0, r8
 80016fc:	d9f3      	bls.n	80016e6 <HAL_RCC_ClockConfig+0xce>
 80016fe:	2003      	movs	r0, #3
 8001700:	e790      	b.n	8001624 <HAL_RCC_ClockConfig+0xc>
 8001702:	1e91      	subs	r1, r2, #2
 8001704:	2901      	cmp	r1, #1
 8001706:	681b      	ldr	r3, [r3, #0]
 8001708:	d802      	bhi.n	8001710 <HAL_RCC_ClockConfig+0xf8>
 800170a:	f013 7f00 	tst.w	r3, #33554432	@ 0x2000000
 800170e:	e7de      	b.n	80016ce <HAL_RCC_ClockConfig+0xb6>
 8001710:	f013 0f02 	tst.w	r3, #2
 8001714:	e7db      	b.n	80016ce <HAL_RCC_ClockConfig+0xb6>
 8001716:	b2ea      	uxtb	r2, r5
 8001718:	701a      	strb	r2, [r3, #0]
 800171a:	681b      	ldr	r3, [r3, #0]
 800171c:	f003 0307 	and.w	r3, r3, #7
 8001720:	42ab      	cmp	r3, r5
 8001722:	f47f af7e 	bne.w	8001622 <HAL_RCC_ClockConfig+0xa>
 8001726:	e790      	b.n	800164a <HAL_RCC_ClockConfig+0x32>
 8001728:	4904      	ldr	r1, [pc, #16]	@ (800173c <HAL_RCC_ClockConfig+0x124>)
 800172a:	68e0      	ldr	r0, [r4, #12]
 800172c:	688b      	ldr	r3, [r1, #8]
 800172e:	f423 53e0 	bic.w	r3, r3, #7168	@ 0x1c00
 8001732:	4303      	orrs	r3, r0
 8001734:	608b      	str	r3, [r1, #8]
 8001736:	e78b      	b.n	8001650 <HAL_RCC_ClockConfig+0x38>
 8001738:	40023c00 	.word	0x40023c00
 800173c:	40023800 	.word	0x40023800
 8001740:	08001ca3 	.word	0x08001ca3
 8001744:	20000000 	.word	0x20000000
 8001748:	20000008 	.word	0x20000008

0800174c <HAL_RCC_GetPCLK1Freq>:
 800174c:	4b04      	ldr	r3, [pc, #16]	@ (8001760 <HAL_RCC_GetPCLK1Freq+0x14>)
 800174e:	4a05      	ldr	r2, [pc, #20]	@ (8001764 <HAL_RCC_GetPCLK1Freq+0x18>)
 8001750:	689b      	ldr	r3, [r3, #8]
 8001752:	f3c3 2382 	ubfx	r3, r3, #10, #3
 8001756:	5cd3      	ldrb	r3, [r2, r3]
 8001758:	4a03      	ldr	r2, [pc, #12]	@ (8001768 <HAL_RCC_GetPCLK1Freq+0x1c>)
 800175a:	6810      	ldr	r0, [r2, #0]
 800175c:	40d8      	lsrs	r0, r3
 800175e:	4770      	bx	lr
 8001760:	40023800 	.word	0x40023800
 8001764:	08001c9b 	.word	0x08001c9b
 8001768:	20000000 	.word	0x20000000

0800176c <_ZSt17__throw_bad_allocv>:
 800176c:	b508      	push	{r3, lr}
 800176e:	f000 f88f 	bl	8001890 <abort>

08001772 <_ZSt19__throw_logic_errorPKc>:
 8001772:	b508      	push	{r3, lr}
 8001774:	f000 f88c 	bl	8001890 <abort>

08001778 <_ZSt20__throw_length_errorPKc>:
 8001778:	b508      	push	{r3, lr}
 800177a:	f000 f889 	bl	8001890 <abort>

0800177e <_ZNSt11char_traitsIcE4copyEPcPKcj.isra.0>:
 800177e:	b10a      	cbz	r2, 8001784 <_ZNSt11char_traitsIcE4copyEPcPKcj.isra.0+0x6>
 8001780:	f000 b9e4 	b.w	8001b4c <memcpy>
 8001784:	4770      	bx	lr

08001786 <_ZNSt11char_traitsIcE7compareEPKcS2_j>:
 8001786:	b10a      	cbz	r2, 800178c <_ZNSt11char_traitsIcE7compareEPKcS2_j+0x6>
 8001788:	f000 b948 	b.w	8001a1c <memcmp>
 800178c:	4610      	mov	r0, r2
 800178e:	4770      	bx	lr

08001790 <_ZNSt7__cxx1112basic_stringIcSt11char_traitsIcESaIcEE11_S_allocateERS3_j>:
 8001790:	1e08      	subs	r0, r1, #0
 8001792:	b508      	push	{r3, lr}
 8001794:	da01      	bge.n	800179a <_ZNSt7__cxx1112basic_stringIcSt11char_traitsIcESaIcEE11_S_allocateERS3_j+0xa>
 8001796:	f7ff ffe9 	bl	800176c <_ZSt17__throw_bad_allocv>
 800179a:	e8bd 4008 	ldmia.w	sp!, {r3, lr}
 800179e:	f000 b85d 	b.w	800185c <_Znwj>

080017a2 <_ZNKSt7__cxx1112basic_stringIcSt11char_traitsIcESaIcEE11_M_is_localEv>:
 80017a2:	f850 3b08 	ldr.w	r3, [r0], #8
 80017a6:	1a1b      	subs	r3, r3, r0
 80017a8:	4258      	negs	r0, r3
 80017aa:	4158      	adcs	r0, r3
 80017ac:	4770      	bx	lr
	...

080017b0 <_ZNSt7__cxx1112basic_stringIcSt11char_traitsIcESaIcEE9_M_createERjj>:
 80017b0:	680b      	ldr	r3, [r1, #0]
 80017b2:	f1b3 4f80 	cmp.w	r3, #1073741824	@ 0x40000000
 80017b6:	b510      	push	{r4, lr}
 80017b8:	d302      	bcc.n	80017c0 <_ZNSt7__cxx1112basic_stringIcSt11char_traitsIcESaIcEE9_M_createERjj+0x10>
 80017ba:	480b      	ldr	r0, [pc, #44]	@ (80017e8 <_ZNSt7__cxx1112basic_stringIcSt11char_traitsIcESaIcEE9_M_createERjj+0x38>)
 80017bc:	f7ff ffdc 	bl	8001778 <_ZSt20__throw_length_errorPKc>
 80017c0:	4293      	cmp	r3, r2
 80017c2:	d90b      	bls.n	80017dc <_ZNSt7__cxx1112basic_stringIcSt11char_traitsIcESaIcEE9_M_createERjj+0x2c>
 80017c4:	ebb3 0f42 	cmp.w	r3, r2, lsl #1
 80017c8:	ea4f 0442 	mov.w	r4, r2, lsl #1
 80017cc:	d206      	bcs.n	80017dc <_ZNSt7__cxx1112basic_stringIcSt11char_traitsIcESaIcEE9_M_createERjj+0x2c>
 80017ce:	f1b4 4f80 	cmp.w	r4, #1073741824	@ 0x40000000
 80017d2:	bf2a      	itet	cs
 80017d4:	f06f 4340 	mvncs.w	r3, #3221225472	@ 0xc0000000
 80017d8:	600c      	strcc	r4, [r1, #0]
 80017da:	600b      	strcs	r3, [r1, #0]
 80017dc:	6809      	ldr	r1, [r1, #0]
 80017de:	3101      	adds	r1, #1
 80017e0:	f7ff ffd6 	bl	8001790 <_ZNSt7__cxx1112basic_stringIcSt11char_traitsIcESaIcEE11_S_allocateERS3_j>
 80017e4:	bd10      	pop	{r4, pc}
 80017e6:	bf00      	nop
 80017e8:	08001c83 	.word	0x08001c83

080017ec <_ZNSt7__cxx1112basic_stringIcSt11char_traitsIcESaIcEE10_M_destroyEj>:
 80017ec:	6800      	ldr	r0, [r0, #0]
 80017ee:	f000 b833 	b.w	8001858 <_ZdlPv>

080017f2 <_ZNSt7__cxx1112basic_stringIcSt11char_traitsIcESaIcEE10_M_disposeEv>:
 80017f2:	b510      	push	{r4, lr}
 80017f4:	4604      	mov	r4, r0
 80017f6:	f7ff ffd4 	bl	80017a2 <_ZNKSt7__cxx1112basic_stringIcSt11char_traitsIcESaIcEE11_M_is_localEv>
 80017fa:	b918      	cbnz	r0, 8001804 <_ZNSt7__cxx1112basic_stringIcSt11char_traitsIcESaIcEE10_M_disposeEv+0x12>
 80017fc:	68a1      	ldr	r1, [r4, #8]
 80017fe:	4620      	mov	r0, r4
 8001800:	f7ff fff4 	bl	80017ec <_ZNSt7__cxx1112basic_stringIcSt11char_traitsIcESaIcEE10_M_destroyEj>
 8001804:	bd10      	pop	{r4, pc}

08001806 <_ZNSt7__cxx1112basic_stringIcSt11char_traitsIcESaIcEE7_S_copyEPcPKcj>:
 8001806:	2a01      	cmp	r2, #1
 8001808:	b410      	push	{r4}
 800180a:	d104      	bne.n	8001816 <_ZNSt7__cxx1112basic_stringIcSt11char_traitsIcESaIcEE7_S_copyEPcPKcj+0x10>
 800180c:	780a      	ldrb	r2, [r1, #0]
 800180e:	f85d 4b04 	ldr.w	r4, [sp], #4
 8001812:	7002      	strb	r2, [r0, #0]
 8001814:	4770      	bx	lr
 8001816:	f85d 4b04 	ldr.w	r4, [sp], #4
 800181a:	f7ff bfb0 	b.w	800177e <_ZNSt11char_traitsIcE4copyEPcPKcj.isra.0>

0800181e <_ZNSt7__cxx1112basic_stringIcSt11char_traitsIcESaIcEE13_S_copy_charsEPcS5_S5_>:
 800181e:	b508      	push	{r3, lr}
 8001820:	1a52      	subs	r2, r2, r1
 8001822:	f7ff fff0 	bl	8001806 <_ZNSt7__cxx1112basic_stringIcSt11char_traitsIcESaIcEE7_S_copyEPcPKcj>
 8001826:	bd08      	pop	{r3, pc}

08001828 <_ZNSt7__cxx1112basic_stringIcSt11char_traitsIcESaIcEE13_S_copy_charsEPcPKcS7_>:
 8001828:	b508      	push	{r3, lr}
 800182a:	1a52      	subs	r2, r2, r1
 800182c:	f7ff ffeb 	bl	8001806 <_ZNSt7__cxx1112basic_stringIcSt11char_traitsIcESaIcEE7_S_copyEPcPKcj>
 8001830:	bd08      	pop	{r3, pc}

08001832 <_ZNKSt7__cxx1112basic_stringIcSt11char_traitsIcESaIcEE7compareEPKc>:
 8001832:	b5f8      	push	{r3, r4, r5, r6, r7, lr}
 8001834:	6847      	ldr	r7, [r0, #4]
 8001836:	4605      	mov	r5, r0
 8001838:	4608      	mov	r0, r1
 800183a:	460e      	mov	r6, r1
 800183c:	f7fe fcca 	bl	80001d4 <strlen>
 8001840:	4287      	cmp	r7, r0
 8001842:	4604      	mov	r4, r0
 8001844:	463a      	mov	r2, r7
 8001846:	4631      	mov	r1, r6
 8001848:	bf28      	it	cs
 800184a:	4602      	movcs	r2, r0
 800184c:	6828      	ldr	r0, [r5, #0]
 800184e:	f7ff ff9a 	bl	8001786 <_ZNSt11char_traitsIcE7compareEPKcS2_j>
 8001852:	b900      	cbnz	r0, 8001856 <_ZNKSt7__cxx1112basic_stringIcSt11char_traitsIcESaIcEE7compareEPKc+0x24>
 8001854:	1b38      	subs	r0, r7, r4
 8001856:	bdf8      	pop	{r3, r4, r5, r6, r7, pc}

08001858 <_ZdlPv>:
 8001858:	f000 b82a 	b.w	80018b0 <free>

0800185c <_Znwj>:
 800185c:	2801      	cmp	r0, #1
 800185e:	bf38      	it	cc
 8001860:	2001      	movcc	r0, #1
 8001862:	b510      	push	{r4, lr}
 8001864:	4604      	mov	r4, r0
 8001866:	4620      	mov	r0, r4
 8001868:	f000 f81a 	bl	80018a0 <malloc>
 800186c:	b100      	cbz	r0, 8001870 <_Znwj+0x14>
 800186e:	bd10      	pop	{r4, pc}
 8001870:	f000 f806 	bl	8001880 <_ZSt15get_new_handlerv>
 8001874:	b908      	cbnz	r0, 800187a <_Znwj+0x1e>
 8001876:	f000 f80b 	bl	8001890 <abort>
 800187a:	4780      	blx	r0
 800187c:	e7f3      	b.n	8001866 <_Znwj+0xa>
	...

08001880 <_ZSt15get_new_handlerv>:
 8001880:	4b02      	ldr	r3, [pc, #8]	@ (800188c <_ZSt15get_new_handlerv+0xc>)
 8001882:	6818      	ldr	r0, [r3, #0]
 8001884:	f3bf 8f5b 	dmb	ish
 8001888:	4770      	bx	lr
 800188a:	bf00      	nop
 800188c:	200000dc 	.word	0x200000dc

08001890 <abort>:
 8001890:	b508      	push	{r3, lr}
 8001892:	2006      	movs	r0, #6
 8001894:	f000 f902 	bl	8001a9c <raise>
 8001898:	2001      	movs	r0, #1
 800189a:	f7ff f893 	bl	80009c4 <_exit>
	...

080018a0 <malloc>:
 80018a0:	4b02      	ldr	r3, [pc, #8]	@ (80018ac <malloc+0xc>)
 80018a2:	4601      	mov	r1, r0
 80018a4:	6818      	ldr	r0, [r3, #0]
 80018a6:	f000 b82d 	b.w	8001904 <_malloc_r>
 80018aa:	bf00      	nop
 80018ac:	2000000c 	.word	0x2000000c

080018b0 <free>:
 80018b0:	4b02      	ldr	r3, [pc, #8]	@ (80018bc <free+0xc>)
 80018b2:	4601      	mov	r1, r0
 80018b4:	6818      	ldr	r0, [r3, #0]
 80018b6:	f000 b957 	b.w	8001b68 <_free_r>
 80018ba:	bf00      	nop
 80018bc:	2000000c 	.word	0x2000000c

080018c0 <sbrk_aligned>:
 80018c0:	b570      	push	{r4, r5, r6, lr}
 80018c2:	4e0f      	ldr	r6, [pc, #60]	@ (8001900 <sbrk_aligned+0x40>)
 80018c4:	460c      	mov	r4, r1
 80018c6:	6831      	ldr	r1, [r6, #0]
 80018c8:	4605      	mov	r5, r0
 80018ca:	b911      	cbnz	r1, 80018d2 <sbrk_aligned+0x12>
 80018cc:	f000 f902 	bl	8001ad4 <_sbrk_r>
 80018d0:	6030      	str	r0, [r6, #0]
 80018d2:	4621      	mov	r1, r4
 80018d4:	4628      	mov	r0, r5
 80018d6:	f000 f8fd 	bl	8001ad4 <_sbrk_r>
 80018da:	1c43      	adds	r3, r0, #1
 80018dc:	d103      	bne.n	80018e6 <sbrk_aligned+0x26>
 80018de:	f04f 34ff 	mov.w	r4, #4294967295
 80018e2:	4620      	mov	r0, r4
 80018e4:	bd70      	pop	{r4, r5, r6, pc}
 80018e6:	1cc4      	adds	r4, r0, #3
 80018e8:	f024 0403 	bic.w	r4, r4, #3
 80018ec:	42a0      	cmp	r0, r4
 80018ee:	d0f8      	beq.n	80018e2 <sbrk_aligned+0x22>
 80018f0:	1a21      	subs	r1, r4, r0
 80018f2:	4628      	mov	r0, r5
 80018f4:	f000 f8ee 	bl	8001ad4 <_sbrk_r>
 80018f8:	3001      	adds	r0, #1
 80018fa:	d1f2      	bne.n	80018e2 <sbrk_aligned+0x22>
 80018fc:	e7ef      	b.n	80018de <sbrk_aligned+0x1e>
 80018fe:	bf00      	nop
 8001900:	200000e0 	.word	0x200000e0

08001904 <_malloc_r>:
 8001904:	e92d 43f8 	stmdb	sp!, {r3, r4, r5, r6, r7, r8, r9, lr}
 8001908:	1ccd      	adds	r5, r1, #3
 800190a:	f025 0503 	bic.w	r5, r5, #3
 800190e:	3508      	adds	r5, #8
 8001910:	2d0c      	cmp	r5, #12
 8001912:	bf38      	it	cc
 8001914:	250c      	movcc	r5, #12
 8001916:	2d00      	cmp	r5, #0
 8001918:	4606      	mov	r6, r0
 800191a:	db01      	blt.n	8001920 <_malloc_r+0x1c>
 800191c:	42a9      	cmp	r1, r5
 800191e:	d904      	bls.n	800192a <_malloc_r+0x26>
 8001920:	230c      	movs	r3, #12
 8001922:	6033      	str	r3, [r6, #0]
 8001924:	2000      	movs	r0, #0
 8001926:	e8bd 83f8 	ldmia.w	sp!, {r3, r4, r5, r6, r7, r8, r9, pc}
 800192a:	f8df 80d4 	ldr.w	r8, [pc, #212]	@ 8001a00 <_malloc_r+0xfc>
 800192e:	f000 f869 	bl	8001a04 <__malloc_lock>
 8001932:	f8d8 3000 	ldr.w	r3, [r8]
 8001936:	461c      	mov	r4, r3
 8001938:	bb44      	cbnz	r4, 800198c <_malloc_r+0x88>
 800193a:	4629      	mov	r1, r5
 800193c:	4630      	mov	r0, r6
 800193e:	f7ff ffbf 	bl	80018c0 <sbrk_aligned>
 8001942:	1c43      	adds	r3, r0, #1
 8001944:	4604      	mov	r4, r0
 8001946:	d158      	bne.n	80019fa <_malloc_r+0xf6>
 8001948:	f8d8 4000 	ldr.w	r4, [r8]
 800194c:	4627      	mov	r7, r4
 800194e:	2f00      	cmp	r7, #0
 8001950:	d143      	bne.n	80019da <_malloc_r+0xd6>
 8001952:	2c00      	cmp	r4, #0
 8001954:	d04b      	beq.n	80019ee <_malloc_r+0xea>
 8001956:	6823      	ldr	r3, [r4, #0]
 8001958:	4639      	mov	r1, r7
 800195a:	4630      	mov	r0, r6
 800195c:	eb04 0903 	add.w	r9, r4, r3
 8001960:	f000 f8b8 	bl	8001ad4 <_sbrk_r>
 8001964:	4581      	cmp	r9, r0
 8001966:	d142      	bne.n	80019ee <_malloc_r+0xea>
 8001968:	6821      	ldr	r1, [r4, #0]
 800196a:	1a6d      	subs	r5, r5, r1
 800196c:	4629      	mov	r1, r5
 800196e:	4630      	mov	r0, r6
 8001970:	f7ff ffa6 	bl	80018c0 <sbrk_aligned>
 8001974:	3001      	adds	r0, #1
 8001976:	d03a      	beq.n	80019ee <_malloc_r+0xea>
 8001978:	6823      	ldr	r3, [r4, #0]
 800197a:	442b      	add	r3, r5
 800197c:	6023      	str	r3, [r4, #0]
 800197e:	f8d8 3000 	ldr.w	r3, [r8]
 8001982:	685a      	ldr	r2, [r3, #4]
 8001984:	bb62      	cbnz	r2, 80019e0 <_malloc_r+0xdc>
 8001986:	f8c8 7000 	str.w	r7, [r8]
 800198a:	e00f      	b.n	80019ac <_malloc_r+0xa8>
 800198c:	6822      	ldr	r2, [r4, #0]
 800198e:	1b52      	subs	r2, r2, r5
 8001990:	d420      	bmi.n	80019d4 <_malloc_r+0xd0>
 8001992:	2a0b      	cmp	r2, #11
 8001994:	d917      	bls.n	80019c6 <_malloc_r+0xc2>
 8001996:	1961      	adds	r1, r4, r5
 8001998:	42a3      	cmp	r3, r4
 800199a:	6025      	str	r5, [r4, #0]
 800199c:	bf18      	it	ne
 800199e:	6059      	strne	r1, [r3, #4]
 80019a0:	6863      	ldr	r3, [r4, #4]
 80019a2:	bf08      	it	eq
 80019a4:	f8c8 1000 	streq.w	r1, [r8]
 80019a8:	5162      	str	r2, [r4, r5]
 80019aa:	604b      	str	r3, [r1, #4]
 80019ac:	4630      	mov	r0, r6
 80019ae:	f000 f82f 	bl	8001a10 <__malloc_unlock>
 80019b2:	f104 000b 	add.w	r0, r4, #11
 80019b6:	1d23      	adds	r3, r4, #4
 80019b8:	f020 0007 	bic.w	r0, r0, #7
 80019bc:	1ac2      	subs	r2, r0, r3
 80019be:	bf1c      	itt	ne
 80019c0:	1a1b      	subne	r3, r3, r0
 80019c2:	50a3      	strne	r3, [r4, r2]
 80019c4:	e7af      	b.n	8001926 <_malloc_r+0x22>
 80019c6:	6862      	ldr	r2, [r4, #4]
 80019c8:	42a3      	cmp	r3, r4
 80019ca:	bf0c      	ite	eq
 80019cc:	f8c8 2000 	streq.w	r2, [r8]
 80019d0:	605a      	strne	r2, [r3, #4]
 80019d2:	e7eb      	b.n	80019ac <_malloc_r+0xa8>
 80019d4:	4623      	mov	r3, r4
 80019d6:	6864      	ldr	r4, [r4, #4]
 80019d8:	e7ae      	b.n	8001938 <_malloc_r+0x34>
 80019da:	463c      	mov	r4, r7
 80019dc:	687f      	ldr	r7, [r7, #4]
 80019de:	e7b6      	b.n	800194e <_malloc_r+0x4a>
 80019e0:	461a      	mov	r2, r3
 80019e2:	685b      	ldr	r3, [r3, #4]
 80019e4:	42a3      	cmp	r3, r4
 80019e6:	d1fb      	bne.n	80019e0 <_malloc_r+0xdc>
 80019e8:	2300      	movs	r3, #0
 80019ea:	6053      	str	r3, [r2, #4]
 80019ec:	e7de      	b.n	80019ac <_malloc_r+0xa8>
 80019ee:	230c      	movs	r3, #12
 80019f0:	6033      	str	r3, [r6, #0]
 80019f2:	4630      	mov	r0, r6
 80019f4:	f000 f80c 	bl	8001a10 <__malloc_unlock>
 80019f8:	e794      	b.n	8001924 <_malloc_r+0x20>
 80019fa:	6005      	str	r5, [r0, #0]
 80019fc:	e7d6      	b.n	80019ac <_malloc_r+0xa8>
 80019fe:	bf00      	nop
 8001a00:	200000e4 	.word	0x200000e4

08001a04 <__malloc_lock>:
 8001a04:	4801      	ldr	r0, [pc, #4]	@ (8001a0c <__malloc_lock+0x8>)
 8001a06:	f000 b89f 	b.w	8001b48 <__retarget_lock_acquire_recursive>
 8001a0a:	bf00      	nop
 8001a0c:	20000224 	.word	0x20000224

08001a10 <__malloc_unlock>:
 8001a10:	4801      	ldr	r0, [pc, #4]	@ (8001a18 <__malloc_unlock+0x8>)
 8001a12:	f000 b89a 	b.w	8001b4a <__retarget_lock_release_recursive>
 8001a16:	bf00      	nop
 8001a18:	20000224 	.word	0x20000224

08001a1c <memcmp>:
 8001a1c:	b510      	push	{r4, lr}
 8001a1e:	3901      	subs	r1, #1
 8001a20:	4402      	add	r2, r0
 8001a22:	4290      	cmp	r0, r2
 8001a24:	d101      	bne.n	8001a2a <memcmp+0xe>
 8001a26:	2000      	movs	r0, #0
 8001a28:	e005      	b.n	8001a36 <memcmp+0x1a>
 8001a2a:	7803      	ldrb	r3, [r0, #0]
 8001a2c:	f811 4f01 	ldrb.w	r4, [r1, #1]!
 8001a30:	42a3      	cmp	r3, r4
 8001a32:	d001      	beq.n	8001a38 <memcmp+0x1c>
 8001a34:	1b18      	subs	r0, r3, r4
 8001a36:	bd10      	pop	{r4, pc}
 8001a38:	3001      	adds	r0, #1
 8001a3a:	e7f2      	b.n	8001a22 <memcmp+0x6>

08001a3c <memset>:
 8001a3c:	4402      	add	r2, r0
 8001a3e:	4603      	mov	r3, r0
 8001a40:	4293      	cmp	r3, r2
 8001a42:	d100      	bne.n	8001a46 <memset+0xa>
 8001a44:	4770      	bx	lr
 8001a46:	f803 1b01 	strb.w	r1, [r3], #1
 8001a4a:	e7f9      	b.n	8001a40 <memset+0x4>

08001a4c <_raise_r>:
 8001a4c:	291f      	cmp	r1, #31
 8001a4e:	b538      	push	{r3, r4, r5, lr}
 8001a50:	4605      	mov	r5, r0
 8001a52:	460c      	mov	r4, r1
 8001a54:	d904      	bls.n	8001a60 <_raise_r+0x14>
 8001a56:	2316      	movs	r3, #22
 8001a58:	6003      	str	r3, [r0, #0]
 8001a5a:	f04f 30ff 	mov.w	r0, #4294967295
 8001a5e:	bd38      	pop	{r3, r4, r5, pc}
 8001a60:	6bc2      	ldr	r2, [r0, #60]	@ 0x3c
 8001a62:	b112      	cbz	r2, 8001a6a <_raise_r+0x1e>
 8001a64:	f852 3021 	ldr.w	r3, [r2, r1, lsl #2]
 8001a68:	b94b      	cbnz	r3, 8001a7e <_raise_r+0x32>
 8001a6a:	4628      	mov	r0, r5
 8001a6c:	f000 f830 	bl	8001ad0 <_getpid_r>
 8001a70:	4622      	mov	r2, r4
 8001a72:	4601      	mov	r1, r0
 8001a74:	4628      	mov	r0, r5
 8001a76:	e8bd 4038 	ldmia.w	sp!, {r3, r4, r5, lr}
 8001a7a:	f000 b817 	b.w	8001aac <_kill_r>
 8001a7e:	2b01      	cmp	r3, #1
 8001a80:	d00a      	beq.n	8001a98 <_raise_r+0x4c>
 8001a82:	1c59      	adds	r1, r3, #1
 8001a84:	d103      	bne.n	8001a8e <_raise_r+0x42>
 8001a86:	2316      	movs	r3, #22
 8001a88:	6003      	str	r3, [r0, #0]
 8001a8a:	2001      	movs	r0, #1
 8001a8c:	e7e7      	b.n	8001a5e <_raise_r+0x12>
 8001a8e:	2100      	movs	r1, #0
 8001a90:	f842 1024 	str.w	r1, [r2, r4, lsl #2]
 8001a94:	4620      	mov	r0, r4
 8001a96:	4798      	blx	r3
 8001a98:	2000      	movs	r0, #0
 8001a9a:	e7e0      	b.n	8001a5e <_raise_r+0x12>

08001a9c <raise>:
 8001a9c:	4b02      	ldr	r3, [pc, #8]	@ (8001aa8 <raise+0xc>)
 8001a9e:	4601      	mov	r1, r0
 8001aa0:	6818      	ldr	r0, [r3, #0]
 8001aa2:	f7ff bfd3 	b.w	8001a4c <_raise_r>
 8001aa6:	bf00      	nop
 8001aa8:	2000000c 	.word	0x2000000c

08001aac <_kill_r>:
 8001aac:	b538      	push	{r3, r4, r5, lr}
 8001aae:	4d07      	ldr	r5, [pc, #28]	@ (8001acc <_kill_r+0x20>)
 8001ab0:	2300      	movs	r3, #0
 8001ab2:	4604      	mov	r4, r0
 8001ab4:	4608      	mov	r0, r1
 8001ab6:	4611      	mov	r1, r2
 8001ab8:	602b      	str	r3, [r5, #0]
 8001aba:	f7fe ff7b 	bl	80009b4 <_kill>
 8001abe:	1c43      	adds	r3, r0, #1
 8001ac0:	d102      	bne.n	8001ac8 <_kill_r+0x1c>
 8001ac2:	682b      	ldr	r3, [r5, #0]
 8001ac4:	b103      	cbz	r3, 8001ac8 <_kill_r+0x1c>
 8001ac6:	6023      	str	r3, [r4, #0]
 8001ac8:	bd38      	pop	{r3, r4, r5, pc}
 8001aca:	bf00      	nop
 8001acc:	20000220 	.word	0x20000220

08001ad0 <_getpid_r>:
 8001ad0:	f7fe bf6e 	b.w	80009b0 <_getpid>

08001ad4 <_sbrk_r>:
 8001ad4:	b538      	push	{r3, r4, r5, lr}
 8001ad6:	4d06      	ldr	r5, [pc, #24]	@ (8001af0 <_sbrk_r+0x1c>)
 8001ad8:	2300      	movs	r3, #0
 8001ada:	4604      	mov	r4, r0
 8001adc:	4608      	mov	r0, r1
 8001ade:	602b      	str	r3, [r5, #0]
 8001ae0:	f7fe ff76 	bl	80009d0 <_sbrk>
 8001ae4:	1c43      	adds	r3, r0, #1
 8001ae6:	d102      	bne.n	8001aee <_sbrk_r+0x1a>
 8001ae8:	682b      	ldr	r3, [r5, #0]
 8001aea:	b103      	cbz	r3, 8001aee <_sbrk_r+0x1a>
 8001aec:	6023      	str	r3, [r4, #0]
 8001aee:	bd38      	pop	{r3, r4, r5, pc}
 8001af0:	20000220 	.word	0x20000220

08001af4 <__errno>:
 8001af4:	4b01      	ldr	r3, [pc, #4]	@ (8001afc <__errno+0x8>)
 8001af6:	6818      	ldr	r0, [r3, #0]
 8001af8:	4770      	bx	lr
 8001afa:	bf00      	nop
 8001afc:	2000000c 	.word	0x2000000c

08001b00 <__libc_init_array>:
 8001b00:	b570      	push	{r4, r5, r6, lr}
 8001b02:	4d0d      	ldr	r5, [pc, #52]	@ (8001b38 <__libc_init_array+0x38>)
 8001b04:	4c0d      	ldr	r4, [pc, #52]	@ (8001b3c <__libc_init_array+0x3c>)
 8001b06:	1b64      	subs	r4, r4, r5
 8001b08:	10a4      	asrs	r4, r4, #2
 8001b0a:	2600      	movs	r6, #0
 8001b0c:	42a6      	cmp	r6, r4
 8001b0e:	d109      	bne.n	8001b24 <__libc_init_array+0x24>
 8001b10:	4d0b      	ldr	r5, [pc, #44]	@ (8001b40 <__libc_init_array+0x40>)
 8001b12:	4c0c      	ldr	r4, [pc, #48]	@ (8001b44 <__libc_init_array+0x44>)
 8001b14:	f000 f872 	bl	8001bfc <_init>
 8001b18:	1b64      	subs	r4, r4, r5
 8001b1a:	10a4      	asrs	r4, r4, #2
 8001b1c:	2600      	movs	r6, #0
 8001b1e:	42a6      	cmp	r6, r4
 8001b20:	d105      	bne.n	8001b2e <__libc_init_array+0x2e>
 8001b22:	bd70      	pop	{r4, r5, r6, pc}
 8001b24:	f855 3b04 	ldr.w	r3, [r5], #4
 8001b28:	4798      	blx	r3
 8001b2a:	3601      	adds	r6, #1
 8001b2c:	e7ee      	b.n	8001b0c <__libc_init_array+0xc>
 8001b2e:	f855 3b04 	ldr.w	r3, [r5], #4
 8001b32:	4798      	blx	r3
 8001b34:	3601      	adds	r6, #1
 8001b36:	e7f2      	b.n	8001b1e <__libc_init_array+0x1e>
 8001b38:	08001cbc 	.word	0x08001cbc
 8001b3c:	08001cbc 	.word	0x08001cbc
 8001b40:	08001cbc 	.word	0x08001cbc
 8001b44:	08001cc0 	.word	0x08001cc0

08001b48 <__retarget_lock_acquire_recursive>:
 8001b48:	4770      	bx	lr

08001b4a <__retarget_lock_release_recursive>:
 8001b4a:	4770      	bx	lr

08001b4c <memcpy>:
 8001b4c:	440a      	add	r2, r1
 8001b4e:	4291      	cmp	r1, r2
 8001b50:	f100 33ff 	add.w	r3, r0, #4294967295
 8001b54:	d100      	bne.n	8001b58 <memcpy+0xc>
 8001b56:	4770      	bx	lr
 8001b58:	b510      	push	{r4, lr}
 8001b5a:	f811 4b01 	ldrb.w	r4, [r1], #1
 8001b5e:	f803 4f01 	strb.w	r4, [r3, #1]!
 8001b62:	4291      	cmp	r1, r2
 8001b64:	d1f9      	bne.n	8001b5a <memcpy+0xe>
 8001b66:	bd10      	pop	{r4, pc}

08001b68 <_free_r>:
 8001b68:	b538      	push	{r3, r4, r5, lr}
 8001b6a:	4605      	mov	r5, r0
 8001b6c:	2900      	cmp	r1, #0
 8001b6e:	d041      	beq.n	8001bf4 <_free_r+0x8c>
 8001b70:	f851 3c04 	ldr.w	r3, [r1, #-4]
 8001b74:	1f0c      	subs	r4, r1, #4
 8001b76:	2b00      	cmp	r3, #0
 8001b78:	bfb8      	it	lt
 8001b7a:	18e4      	addlt	r4, r4, r3
 8001b7c:	f7ff ff42 	bl	8001a04 <__malloc_lock>
 8001b80:	4a1d      	ldr	r2, [pc, #116]	@ (8001bf8 <_free_r+0x90>)
 8001b82:	6813      	ldr	r3, [r2, #0]
 8001b84:	b933      	cbnz	r3, 8001b94 <_free_r+0x2c>
 8001b86:	6063      	str	r3, [r4, #4]
 8001b88:	6014      	str	r4, [r2, #0]
 8001b8a:	4628      	mov	r0, r5
 8001b8c:	e8bd 4038 	ldmia.w	sp!, {r3, r4, r5, lr}
 8001b90:	f7ff bf3e 	b.w	8001a10 <__malloc_unlock>
 8001b94:	42a3      	cmp	r3, r4
 8001b96:	d908      	bls.n	8001baa <_free_r+0x42>
 8001b98:	6820      	ldr	r0, [r4, #0]
 8001b9a:	1821      	adds	r1, r4, r0
 8001b9c:	428b      	cmp	r3, r1
 8001b9e:	bf01      	itttt	eq
 8001ba0:	6819      	ldreq	r1, [r3, #0]
 8001ba2:	685b      	ldreq	r3, [r3, #4]
 8001ba4:	1809      	addeq	r1, r1, r0
 8001ba6:	6021      	streq	r1, [r4, #0]
 8001ba8:	e7ed      	b.n	8001b86 <_free_r+0x1e>
 8001baa:	461a      	mov	r2, r3
 8001bac:	685b      	ldr	r3, [r3, #4]
 8001bae:	b10b      	cbz	r3, 8001bb4 <_free_r+0x4c>
 8001bb0:	42a3      	cmp	r3, r4
 8001bb2:	d9fa      	bls.n	8001baa <_free_r+0x42>
 8001bb4:	6811      	ldr	r1, [r2, #0]
 8001bb6:	1850      	adds	r0, r2, r1
 8001bb8:	42a0      	cmp	r0, r4
 8001bba:	d10b      	bne.n	8001bd4 <_free_r+0x6c>
 8001bbc:	6820      	ldr	r0, [r4, #0]
 8001bbe:	4401      	add	r1, r0
 8001bc0:	1850      	adds	r0, r2, r1
 8001bc2:	4283      	cmp	r3, r0
 8001bc4:	6011      	str	r1, [r2, #0]
 8001bc6:	d1e0      	bne.n	8001b8a <_free_r+0x22>
 8001bc8:	6818      	ldr	r0, [r3, #0]
 8001bca:	685b      	ldr	r3, [r3, #4]
 8001bcc:	6053      	str	r3, [r2, #4]
 8001bce:	4408      	add	r0, r1
 8001bd0:	6010      	str	r0, [r2, #0]
 8001bd2:	e7da      	b.n	8001b8a <_free_r+0x22>
 8001bd4:	d902      	bls.n	8001bdc <_free_r+0x74>
 8001bd6:	230c      	movs	r3, #12
 8001bd8:	602b      	str	r3, [r5, #0]
 8001bda:	e7d6      	b.n	8001b8a <_free_r+0x22>
 8001bdc:	6820      	ldr	r0, [r4, #0]
 8001bde:	1821      	adds	r1, r4, r0
 8001be0:	428b      	cmp	r3, r1
 8001be2:	bf04      	itt	eq
 8001be4:	6819      	ldreq	r1, [r3, #0]
 8001be6:	685b      	ldreq	r3, [r3, #4]
 8001be8:	6063      	str	r3, [r4, #4]
 8001bea:	bf04      	itt	eq
 8001bec:	1809      	addeq	r1, r1, r0
 8001bee:	6021      	streq	r1, [r4, #0]
 8001bf0:	6054      	str	r4, [r2, #4]
 8001bf2:	e7ca      	b.n	8001b8a <_free_r+0x22>
 8001bf4:	bd38      	pop	{r3, r4, r5, pc}
 8001bf6:	bf00      	nop
 8001bf8:	200000e4 	.word	0x200000e4

08001bfc <_init>:
 8001bfc:	b5f8      	push	{r3, r4, r5, r6, r7, lr}
 8001bfe:	bf00      	nop
 8001c00:	bcf8      	pop	{r3, r4, r5, r6, r7}
 8001c02:	bc08      	pop	{r3}
 8001c04:	469e      	mov	lr, r3
 8001c06:	4770      	bx	lr

08001c08 <_fini>:
 8001c08:	b5f8      	push	{r3, r4, r5, r6, r7, lr}
 8001c0a:	bf00      	nop
 8001c0c:	bcf8      	pop	{r3, r4, r5, r6, r7}
 8001c0e:	bc08      	pop	{r3}
 8001c10:	469e      	mov	lr, r3
 8001c12:	4770      	bx	lr
